
build/main.elf:     file format elf32-littleriscv

Contents of section .text.init:
 0000 17010100 13010100 ef00802d 6f000000  ...........-o...
Contents of section .text:
 0010 97110000 938101ad 17250000 13058562  .........%.....b
 0020 17260000 1306c663 3306a640 93050000  .&.....c3..@....
 0030 ef00401d 17150000 130545d0 63080500  ..@.......E.c...
 0040 17250000 130545de ef00104f ef001031  .%....E....O...1
 0050 03250100 93054100 13060000 ef004028  .%....A.......@(
 0060 6f00802c 130101ff 23248100 37240000  o..,....#$..7$..
 0070 83470464 23261100 63920702 93070000  .G.d#&..c.......
 0080 638a0700 37250000 13054562 97000000  c...7%....Eb....
 0090 e7000000 93071000 2300f464 8320c100  ........#..d. ..
 00a0 03248100 13010101 67800000 93070000  .$......g.......
 00b0 638e0700 b7250000 37250000 93854564  c....%..7%....Ed
 00c0 13054562 17030000 67000000 67800000  ..Eb....g...g...
 00d0 b7870011 03a54700 1375f500 67800000  ......G..u..g...
 00e0 03270500 b7c70011 23a0e700 67800000  .'......#...g...
 00f0 83270500 b7c60011 130101ff 93c71700  .'..............
 0100 2320f500 23a0f600 23260100 8327c100  # ..#...#&...'..
 0110 37170000 1307e7ff 634cf700 8327c100  7.......cL...'..
 0120 93871700 2326f100 8327c100 e358f7fe  ....#&...'...X..
 0130 13010101 67800000 37170000 130101ff  ....g...7.......
 0140 13060001 93061000 37c50011 1307e7ff  ........7.......
 0150 b7850000 2320d500 23240100 83278100  ....# ..#$...'..
 0160 634cf700 83278100 93871700 2324f100  cL...'......#$..
 0170 83278100 e358f7fe 93d61640 1306f6ff  .'...X.....@....
 0180 b3e6b600 e31806fc 37170000 13060001  ........7.......
 0190 b7c50011 1307e7ff 23a0d500 23260100  ........#...#&..
 01a0 8327c100 634cf700 8327c100 93871700  .'..cL...'......
 01b0 2326f100 8327c100 e358f7fe 1306f6ff  #&...'...X......
 01c0 93d61640 e31a06fc b7c70011 23a00700  ...@........#...
 01d0 13010101 67800000 130101ff 23260100  ....g.......#&..
 01e0 8327c100 63dca700 8327c100 93871700  .'..c....'......
 01f0 2326f100 8327c100 e3c8a7fe 13010101  #&...'..........
 0200 67800000 1303f000 13070500 637ec302  g...........c~..
 0210 9377f700 6390070a 63920508 937606ff  .w..c...c....v..
 0220 1376f600 b386e600 2320b700 2322b700  .v......# ..#"..
 0230 2324b700 2326b700 13070701 e366d7fe  #$..#&.......f..
 0240 63140600 67800000 b306c340 93962600  c...g......@..&.
 0250 97020000 b3865600 6780c600 2307b700  ......V.g...#...
 0260 a306b700 2306b700 a305b700 2305b700  ....#.......#...
 0270 a304b700 2304b700 a303b700 2303b700  ....#.......#...
 0280 a302b700 2302b700 a301b700 2301b700  ....#.......#...
 0290 a300b700 2300b700 67800000 93f5f50f  ....#...g.......
 02a0 93968500 b3e5d500 93960501 b3e5d500  ................
 02b0 6ff0dff6 93962700 97020000 b3865600  o.....'.......V.
 02c0 93820000 e78006fa 93800200 938707ff  ................
 02d0 3307f740 3306f600 e378c3f6 6ff0dff3  3..@3....x..o...
Contents of section .text.startup:
 02e0 37170000 b7c70011 93061000 130101ff  7...............
 02f0 23a0d700 37c60011 1307e7ff 93c61600  #...7...........
 0300 2320d600 23260100 8327c100 e348f7fe  # ..#&...'...H..
 0310 8327c100 93871700 2326f100 8327c100  .'......#&...'..
 0320 e358f7fe 6ff09ffd                    .X..o...        
Contents of section .text.exit:
 0328 130101ff 93050000 23248100 23261100  ........#$..#&..
 0338 13040500 ef00500c b7270000 83a74779  ......P..'....Gy
 0348 63840700 e7800700 13050400 ef109040  c..............@
Contents of section .text.__fp_lock:
 0358 13050000 67800000                    ....g...        
Contents of section .text.stdio_exit_handler:
 0360 37260000 b7250000 37250000 1306860e  7&...%..7%......
 0370 93858597 1305850f 6f008035           ........o..5    
Contents of section .text.cleanup_stdio:
 037c 83254500 130101ff b7270000 23248100  .%E......'..#$..
 038c 23261100 9387c765 13040500 6384f500  #&.....e....c...
 039c ef10c05d 83258400 b7270000 9387476c  ...].%...'....Gl
 03ac 6386f500 13050400 ef10405c 8325c400  c.........@\.%..
 03bc b7270000 9387c772 638cf500 13050400  .'.....rc.......
 03cc 03248100 8320c100 13010101 6f10005a  .$... ......o..Z
 03dc 8320c100 03248100 13010101 67800000  . ...$......g...
Contents of section .text.__fp_unlock:
 03ec 13050000 67800000                    ....g...        
Contents of section .text.global_stdio_init.part.0:
 03f4 130101fe 232c8100 37270000 93070036  ....#,..7'.....6
 0404 37240000 37250000 1304c465 232e1100  7$..7%.....e#...
 0414 232a9100 23282101 23263101 23244101  #*..#(!.#&1.#$A.
 0424 232af778 13068000 93074000 93050000  #*.x......@.....
 0434 1305856b 2326f400 23200400 23220400  ...k#&..# ..#"..
 0444 23240400 23220406 23280400 232a0400  #$..#"..#(..#*..
 0454 232c0400 eff0dfda b7070100 37250000  #,..........7%..
 0464 130a4078 9309807e 138901d9 938481e0  ..@x...~........
 0474 93879700 13068000 93050000 13050572  ...............r
 0484 23204403 23223403 23242403 23269402  # D.#"4.#$$.#&..
 0494 232af406 232e8400 23240406 23260406  #*..#...#$..#&..
 04a4 23280406 2326040c 232c0406 232e0406  #(..#&..#,..#...
 04b4 23200408 eff0dfd4 b7070200 37250000  # ..........7%..
 04c4 37270000 93872701 1307476c 13068000  7'....'...Gl....
 04d4 93050000 13058578 23244409 23263409  .......x#$D.#&4.
 04e4 23282409 232a9408 232ef40c 2322e408  #($.#*..#...#"..
 04f4 2328040c 232a040c 232c040c 232a0412  #(..#*..#,..#*..
 0504 2320040e 2322040e 2324040e eff05fcf  # ..#"..#$...._.
 0514 b7270000 9387c772 2328440f 232a340f  .'.....r#(D.#*4.
 0524 232c240f 232e940e 8320c101 2326f40e  #,$.#.... ..#&..
 0534 03248101 83244101 03290101 8329c100  .$...$A..)...)..
 0544 032a8100 13010102 67800000           .*......g...    
Contents of section .text.__sfp:
 0550 b7270000 83a74779 130101fe 23263101  .'....Gy....#&1.
 0560 232e1100 232c8100 232a9100 23282101  #...#,..#*..#(!.
 0570 93090500 6388070e 37290000 1309890e  ....c...7)......
 0580 9304f0ff 83274900 03248900 9387f7ff  .....'I..$......
 0590 63d80700 6f000008 13048406 638c9706  c...o.......c...
 05a0 0317c400 9387f7ff e31807fe b707ffff  ................
 05b0 93871700 2326f400 23220406 23200400  ....#&..#"..# ..
 05c0 23240400 23220400 23280400 232a0400  #$..#"..#(..#*..
 05d0 232c0400 13068000 93050000 1305c405  #,..............
 05e0 eff05fc2 23280402 232a0402 23220404  .._.#(..#*..#"..
 05f0 23240404 8320c101 13050400 03248101  #$... .......$..
 0600 83244101 03290101 8329c100 13010102  .$A..)...)......
 0610 67800000 03240900 63060400 13090400  g....$..c.......
 0620 6ff05ff6 9305c01a 13850900 ef001037  o._............7
 0630 13040500 630c0502 1305c500 93074000  ....c.........@.
 0640 23200400 2322f400 2324a400 1306001a  # ..#"..#$......
 0650 93050000 eff01fbb 23208900 13090400  ........# ......
 0660 6ff05ff2 eff01fd9 6ff01ff1 23200900  o._.....o...# ..
 0670 9307c000 23a0f900 6ff0dff7           ....#...o...    
Contents of section .text.__sinit:
 067c 83274503 63840700 67800000 b7270000  .'E.c...g....'..
 068c 03a74779 9307c037 232af502 e31607fe  ..Gy...7#*......
 069c 6ff09fd5                             o...            
Contents of section .text.__sfp_lock_acquire:
 06a0 67800000                             g...            
Contents of section .text.__sfp_lock_release:
 06a4 67800000                             g...            
Contents of section .text.__fp_lock_all:
 06a8 37260000 1306860e 93058035 13050000  7&.........5....
 06b8 6f008001                             o...            
Contents of section .text.__fp_unlock_all:
 06bc 37260000 1306860e 9305c03e 13050000  7&.........>....
 06cc 6f004000                             o.@.            
Contents of section .text._fwalk_sglue:
 06d0 130101fd 23202103 232e3101 232c4101  ....# !.#.1.#,A.
 06e0 232a5101 23286101 23267101 23261102  #*Q.#(a.#&q.#&..
 06f0 23248102 23229102 130b0500 938b0500  #$..#"..........
 0700 930a0600 130a0000 93091000 1309f0ff  ................
 0710 83a44a00 03a48a00 9384f4ff 63c80402  ..J.........c...
 0720 8357c400 63fef900 8317e400 93050400  .W..c...........
 0730 13050b00 63862701 e7800b00 336aaa00  ....c.'.....3j..
 0740 9384f4ff 13048406 e39c24fd 83aa0a00  ..........$.....
 0750 e3900afc 8320c102 03248102 83244102  ..... ...$...$A.
 0760 03290102 8329c101 832a4101 032b0101  .)...)...*A..+..
 0770 832bc100 13050a00 032a8101 13010103  .+.......*......
 0780 67800000                             g...            
Contents of section .text.__sread:
 0784 130101ff 23248100 13840500 8395e500  ....#$..........
 0794 23261100 ef00c02e 63400502 83270405  #&......c@...'..
 07a4 8320c100 b387a700 2328f404 03248100  . ......#(...$..
 07b4 13010101 67800000 8357c400 37f7ffff  ....g....W..7...
 07c4 1307f7ff b3f7e700 8320c100 2316f400  ......... ..#...
 07d4 03248100 13010101 67800000           .$......g...    
Contents of section .text.__seofread:
 07e0 13050000 67800000                    ....g...        
Contents of section .text.__swrite:
 07e8 8397c500 130101fe 232c8100 232a9100  ........#,..#*..
 07f8 23282101 23263101 232e1100 13f70710  #(!.#&1.#.......
 0808 13840500 93040500 13090600 93890600  ................
 0818 63100704 37f7ffff 1307f7ff b3f7e700  c...7...........
 0828 8315e400 2316f400 03248101 8320c101  ....#....$... ..
 0838 93860900 13060900 8329c100 03290101  .........)...)..
 0848 13850400 83244101 13010102 6f00c029  .....$A.....o..)
 0858 8395e500 93062000 13060000 ef00401b  ...... .......@.
 0868 8317c400 6ff01ffb                    ....o...        
Contents of section .text.__sseek:
 0870 130101ff 23248100 13840500 8395e500  ....#$..........
 0880 23261100 ef004019 9307f0ff 6308f502  #&....@.....c...
 0890 8357c400 37170000 8320c100 b3e7e700  .W..7.... ......
 08a0 93970701 93d70741 2328a404 2316f400  .......A#(..#...
 08b0 03248100 13010101 67800000 8357c400  .$......g....W..
 08c0 37f7ffff 1307f7ff b3f7e700 93970701  7...............
 08d0 93d70741 8320c100 2316f400 03248100  ...A. ..#....$..
 08e0 13010101 67800000                    ....g...        
Contents of section .text.__sclose:
 08e8 8395e500 6f004000                    ....o.@.        
Contents of section .text._close_r:
 08f0 130101ff 23248100 23229100 13040500  ....#$..#"......
 0900 b7240000 13850500 23261100 23ac0478  .$......#&..#..x
 0910 ef108060 9307f0ff 630cf500 8320c100  ...`....c.... ..
 0920 03248100 83244100 13010101 67800000  .$...$A.....g...
 0930 83a78479 e38407fe 8320c100 2320f400  ...y..... ..# ..
 0940 03248100 83244100 13010101 67800000  .$...$A.....g...
Contents of section .text._reclaim_reent:
 0950 b7270000 83a70763 638ea70a 83254504  .'.....cc....%E.
 0960 130101fe 232a9100 232e1100 93040500  ....#*..#.......
 0970 638c0504 23282101 23263101 232c8100  c...#(!.#&1.#,..
 0980 13090000 93090008 b3872501 03a40700  ..........%.....
 0990 630e0400 93050400 03240400 13850400  c........$......
 09a0 ef00004f e31804fe 83a54404 13094900  ...O......D...I.
 09b0 e31c39fd 13850400 ef00804d 03248101  ..9........M.$..
 09c0 03290101 8329c100 83a58403 63860500  .)...)......c...
 09d0 13850400 ef00c04b 83a5c404 63860500  .......K....c...
 09e0 13850400 ef00c04a 83a74403 638c0700  .......J..D.c...
 09f0 8320c101 13850400 83244101 13010102  . .......$A.....
 0a00 67800700 8320c101 83244101 13010102  g.... ...$A.....
 0a10 67800000 67800000                    g...g...        
Contents of section .text._lseek_r:
 0a18 130101ff 13870500 23248100 23229100  ........#$..#"..
 0a28 93050600 13040500 b7240000 13860600  .........$......
 0a38 13050700 23261100 23ac0478 ef108054  ....#&..#..x...T
 0a48 9307f0ff 630cf500 8320c100 03248100  ....c.... ...$..
 0a58 83244100 13010101 67800000 83a78479  .$A.....g......y
 0a68 e38407fe 8320c100 2320f400 03248100  ..... ..# ...$..
 0a78 83244100 13010101 67800000           .$A.....g...    
Contents of section .text._read_r:
 0a84 130101ff 13870500 23248100 23229100  ........#$..#"..
 0a94 93050600 13040500 b7240000 13860600  .........$......
 0aa4 13050700 23261100 23ac0478 ef100052  ....#&..#..x...R
 0ab4 9307f0ff 630cf500 8320c100 03248100  ....c.... ...$..
 0ac4 83244100 13010101 67800000 83a78479  .$A.....g......y
 0ad4 e38407fe 8320c100 2320f400 03248100  ..... ..# ...$..
 0ae4 83244100 13010101 67800000           .$A.....g...    
Contents of section .text._write_r:
 0af0 130101ff 13870500 23248100 23229100  ........#$..#"..
 0b00 93050600 13040500 b7240000 13860600  .........$......
 0b10 13050700 23261100 23ac0478 ef104057  ....#&..#..x..@W
 0b20 9307f0ff 630cf500 8320c100 03248100  ....c.... ...$..
 0b30 83244100 13010101 67800000 83a78479  .$A.....g......y
 0b40 e38407fe 8320c100 2320f400 03248100  ..... ..# ...$..
 0b50 83244100 13010101 67800000           .$A.....g...    
Contents of section .text.__libc_init_array:
 0b5c 130101ff 23248100 23202101 93070000  ....#$..# !.....
 0b6c 13070000 23261100 23229100 3389e740  ....#&..#"..3..@
 0b7c 6382e702 13592940 13040000 93040000  c....Y)@........
 0b8c 83270400 93841400 13044400 e7800700  .'........D.....
 0b9c e3e824ff 93070000 13070000 3389e740  ..$.........3..@
 0bac 13592940 6380e702 13040000 93040000  .Y)@c...........
 0bbc 83270400 93841400 13044400 e7800700  .'........D.....
 0bcc e3e824ff 8320c100 03248100 83244100  ..$.. ...$...$A.
 0bdc 03290100 13010101 67800000           .)......g...    
Contents of section .text.startup.register_fini:
 0be8 93070000 63880700 37250000 130545e2  ....c...7%....E.
 0bf8 6f000014 67800000                    o...g...        
Contents of section .text.__call_exitprocs:
 0c00 130101fd 232c4101 372a0000 23202103  ....#,A.7*..# !.
 0c10 0329ca79 23261102 6308090a 232e3101  .).y#&..c...#.1.
 0c20 232a5101 23286101 23267101 23248102  #*Q.#(a.#&q.#$..
 0c30 23229102 23248101 130b0500 938b0500  #"..#$..........
 0c40 9309f0ff 930a1000 83244900 1384f4ff  .........$I.....
 0c50 634e0404 93942400 b3049900 63900b08  cN....$.....c...
 0c60 83274900 83a64400 9387f7ff 638c870a  .'I...D.....c...
 0c70 23a20400 63860602 83278918 33978a00  #...c....'..3...
 0c80 032c4900 b377f700 63960706 e7800600  .,I..w..c.......
 0c90 03274900 8327ca79 63108709 639e2707  .'I..'.yc...c.'.
 0ca0 1304f4ff 9384c4ff e31a34fb 03248102  ..........4..$..
 0cb0 83244102 8329c101 832a4101 032b0101  .$A..)...*A..+..
 0cc0 832bc100 032c8100 8320c102 03290102  .+...,... ...)..
 0cd0 032a8101 13010103 67800000 83a74410  .*......g.....D.
 0ce0 e38077f9 1304f4ff 9384c4ff e31834ff  ..w...........4.
 0cf0 6ff0dffb 8327c918 83a54408 3377f700  o....'....D.3w..
 0d00 63160702 13050b00 e7800600 03274900  c............'I.
 0d10 8327ca79 e30487f9 e38a07f8 13890700  .'.y............
 0d20 6ff09ff2 23228900 6ff0dff4 13850500  o...#"..o.......
 0d30 e7800600 6ff0dff5                    ....o...        
Contents of section .text.atexit:
 0d38 93050500 93060000 13060000 13050000  ................
 0d48 6f100013                             o...            
Contents of section .text._malloc_trim_r:
 0d4c 130101fe 23263101 b7290000 232c8100  ....#&1..)..#,..
 0d5c 232a9100 23282101 23244101 232e1100  #*..#(!.#$A.#...
 0d6c 138a0500 13090500 93898921 ef00903f  ...........!...?
 0d7c 03a78900 b7170000 9387f7fe 83244700  .............$G.
 0d8c 37170000 93f4c4ff 3384f400 33044441  7.......3...3.DA
 0d9c 1354c400 1304f4ff 1314c400 634ee400  .T..........cN..
 0dac 93050000 13050900 ef100001 83a78900  ................
 0dbc b3879700 6308f502 13050900 ef00d03a  ....c..........:
 0dcc 8320c101 03248101 83244101 03290101  . ...$...$A..)..
 0ddc 8329c100 032a8100 13050000 13010102  .)...*..........
 0dec 67800000 b3058040 13050900 ef00d07c  g......@.......|
 0dfc 9307f0ff 630af504 b7270000 9387077a  ....c....'.....z
 0e0c 03a70700 83a68900 b3848440 93e41400  ...........@....
 0e1c 33078740 13050900 23a29600 23a0e700  3..@....#...#...
 0e2c ef009034 8320c101 03248101 83244101  ...4. ...$...$A.
 0e3c 03290101 8329c100 032a8100 13051000  .)...)...*......
 0e4c 13010102 67800000 93050000 13050900  ....g...........
 0e5c ef009076 03a78900 9306f000 b307e540  ...v...........@
 0e6c e3dcf6f4 b7260000 83a68663 93e71700  .....&.....c....
 0e7c 2322f700 3305d540 b7260000 23a0a67a  #"..3..@.&..#..z
 0e8c 6ff09ff3                             o...            
Contents of section .text._free_r:
 0e90 63820518 130101ff 23248100 23229100  c.......#$..#"..
 0ea0 13840500 93040500 23261100 ef00502c  ........#&....P,
 0eb0 0325c4ff 130784ff b7250000 9377e5ff  .%.......%...w..
 0ec0 3306f700 93858521 83264600 03a88500  3......!.&F.....
 0ed0 93f6c6ff 6302c81a 2322d600 13751500  ....c...#"...u..
 0ee0 3308d600 6310050a 032384ff 03284800  3...c....#...(H.
 0ef0 37250000 33076740 83288700 13050522  7%..3.g@.(....."
 0f00 b3876700 13781800 6382a814 0323c700  ..g..x..c....#..
 0f10 23a66800 23241301 630a081a 93e61700  #.h.#$..c.......
 0f20 2322d700 2320f600 9306f01f 63ecf606  #"..# ......c...
 0f30 93f687ff 93868600 03a54500 b386d500  ..........E.....
 0f40 03a60600 13d85700 93071000 b3970701  ......W.........
 0f50 b3e7a700 138586ff 2326a700 2324c700  ........#&..#$..
 0f60 23a2f500 23a0e600 2326e600 03248100  #...#...#&...$..
 0f70 8320c100 13850400 83244100 13010101  . .......$A.....
 0f80 6f00501f 03254800 13751500 63060508  o.P..%H..u..c...
 0f90 93e61700 232ed4fe 2320f600 9306f01f  ....#...# ......
 0fa0 e3f8f6f8 93d69700 13064000 6364d612  ..........@.cd..
 0fb0 93d66700 13859603 13868603 13153500  ..g...........5.
 0fc0 3385a500 83260500 130585ff 6318d500  3....&......c...
 0fd0 6f00c015 83a68600 6308d500 03a64600  o.......c.....F.
 0fe0 1376c6ff e3e8c7fe 03a5c600 2326a700  .v..........#&..
 0ff0 2324d700 03248100 2324e500 8320c100  #$...$..#$... ..
 1000 13850400 83244100 23a6e600 13010101  .....$A.#.......
 1010 6f005016 67800000 37250000 b387d700  o.P.g...7%......
 1020 13050522 83268600 6380a60e 0328c600  ...".&..c....(..
 1030 13e51700 3306f700 23a60601 2324d800  ....3...#...#$..
 1040 2322a700 2320f600 6ff01fee 63100814  #"..# ..o...c...
 1050 83258600 0326c600 b386f600 93e71600  .%...&..........
 1060 23a6c500 2324b600 2322f700 3307d700  #...#$..#"..3...
 1070 2320d700 6ff09fef 13751500 b386d700  # ..o....u......
 1080 63100502 032584ff 3307a740 8327c700  c....%..3..@.'..
 1090 03268700 b386a600 2326f600 23a4c700  .&......#&..#...
 10a0 b7270000 13e61600 83a7c763 2322c700  .'.........c#"..
 10b0 23a4e500 e3ecf6ea b7270000 83a5077d  #........'.....}
 10c0 13850400 eff09fc8 6ff05fea b387d700  ........o._.....
 10d0 6ff05ff5 13064001 6370d602 13064005  o._...@.cp....@.
 10e0 6364d606 93d6c700 1385f606 1386e606  cd..............
 10f0 13153500 6ff0dfec 1385c605 1386b605  ..5.o...........
 1100 13153500 6ff0dfeb 23aae500 23a8e500  ..5.o...#...#...
 1110 93e61700 2326a700 2324a700 2322d700  ....#&..#$..#"..
 1120 3307f700 2320f700 6ff05fe4 03a84500  3...# ..o._...E.
 1130 13562640 93071000 b397c700 b3e70701  .V&@............
 1140 23a2f500 6ff09fea 13064015 636cd600  #...o.....@.cl..
 1150 93d6f700 13858607 13867607 13153500  ..........v...5.
 1160 6ff01fe6 13064055 636cd600 93d62701  o.....@Ucl....'.
 1170 1385d607 1386c607 13153500 6ff05fe4  ..........5.o._.
 1180 1305803f 1306e007 6ff09fe3 93e61700  ...?....o.......
 1190 2322d700 2320f600 6ff05fdd           #"..# ..o._.    
Contents of section .text._malloc_r:
 119c 130101fd 232e3101 23261102 23248102  ....#.1.#&..#$..
 11ac 23229102 23202103 9387b500 13076001  #"..# !.......`.
 11bc 93090500 6362f708 93070001 63e6b720  ....cb......c.. 
 11cc ef00407a 93078001 93052000 93040001  ..@z...... .....
 11dc 37290000 13098921 b307f900 03a44700  7).....!......G.
 11ec 138787ff 630ee434 83274400 8326c400  ....c..4.'D..&..
 11fc 03268400 93f7c7ff b307f400 03a74700  .&............G.
 120c 2326d600 23a4c600 13671700 13850900  #&..#....g......
 121c 23a2e700 ef004075 13058400 8320c102  #.....@u..... ..
 122c 03248102 83244102 03290102 8329c101  .$...$A..)...)..
 123c 13010103 67800000 93f487ff 63c60718  ....g.......c...
 124c 63e4b418 ef000072 9307701f 63f49740  c......r..p.c..@
 125c 93d79400 63820718 13074000 636af734  ....c.....@.cj.4
 126c 93d76400 93859703 13888703 13963500  ..d...........5.
 127c 37290000 13098921 3306c900 03244600  7).....!3....$F.
 128c 130686ff 63088602 1305f000 6f004001  ....c.......o.@.
 129c 8326c400 6352072a 630ed600 13840600  .&..cR.*c.......
 12ac 83274400 93f7c7ff 33879740 e352e5fe  .'D.....3..@.R..
 12bc 93050800 03240901 37280000 13080822  .....$..7(....."
 12cc 63080427 83274400 9306f000 93f7c7ff  c..'.'D.........
 12dc 33879740 63c6e638 232a0901 23280901  3..@c..8#*..#(..
 12ec 635a0734 1307f01f 03254900 6362f726  cZ.4.....%I.cb.&
 12fc 13f787ff 13078700 3307e900 83260700  ........3....&..
 130c 13d65700 93071000 b397c700 3365f500  ..W.........3e..
 131c 930787ff 2326f400 2324d400 2322a900  ....#&..#$..#"..
 132c 23208700 23a68600 93d72540 13061000  # ..#.....%@....
 133c 3316f600 636ac50a b377a600 63940702  3...cj...w..c...
 134c 13161600 93f5c5ff b377a600 93854500  .........w....E.
 135c 639a0700 13161600 b377a600 93854500  c........w....E.
 136c e38a07fe 9308f000 13933500 33036900  ..........5.3.i.
 137c 13050300 8327c500 138e0500 630cf524  .....'......c..$
 138c 03a74700 13840700 83a7c700 1377c7ff  ..G..........w..
 139c b3069740 63ccd824 e3c206fe 3307e400  ...@c..$....3...
 13ac 83264700 03268400 13850900 93e61600  .&G..&..........
 13bc 2322d700 2326f600 23a4c700 ef00c05a  #"..#&..#......Z
 13cc 13058400 6ff09fe5 9307c000 23a0f900  ....o.......#...
 13dc 13050000 6ff09fe4 13060020 93050004  ....o...... ....
 13ec 1308f003 6ff0dfe8 03248900 23286101  ....o....$..#(a.
 13fc 83274400 13fbc7ff 63689b00 33079b40  .'D.....ch..3..@
 140c 9307f000 63c4e70e b7270000 23229101  ....c....'..#"..
 141c b72c0000 232a5101 03a78c63 83aa077d  .,..#*Q....c...}
 142c 232c4101 23267101 9307f0ff 330a6401  #,A.#&q.....3.d.
 143c b38a5401 630ef73c b7170000 9387f700  ..T.c..<........
 144c b38afa00 b7f7ffff b3fafa00 93850a00  ................
 145c 13850900 ef005016 9307f0ff 930b0500  ......P.........
 146c 6302f546 23248101 63644525 372c0000  c..F#$..cdE%7,..
 147c 130c0c7a 83250c00 b385ba00 2320bc00  ...z.%......# ..
 148c 13870500 631caa2a 93174501 6398072a  ....c..*..E.c..*
 149c 832b8900 b3075b01 93e71700 23a2fb00  .+....[.....#...
 14ac 37270000 8326c77c 63f4b600 2326b77c  7'...&.|c...#&.|
 14bc 37270000 8326877c 63f4b600 2324b77c  7'...&.|c...#$.|
 14cc 032c8100 13840b00 93f7c7ff 33879740  .,..........3..@
 14dc 63ec9738 9307f000 63d8e738 032a8101  c..8....c..8.*..
 14ec 832a4101 832bc100 832c4100 93e71400  .*A..+...,A.....
 14fc 2322f400 b3049400 23249900 13671700  #"......#$...g..
 150c 13850900 23a2e400 ef000046 8320c102  ....#......F. ..
 151c 13058400 03248102 032b0101 83244102  .....$...+...$A.
 152c 03290102 8329c101 13010103 67800000  .)...)......g...
 153c 03254900 6ff05fdf 03268400 6ff0dfcb  .%I.o._..&..o...
 154c 03a4c700 93852500 e38687d6 6ff0dfc9  ......%.....o...
 155c 13d79700 93064000 63f2e614 93064001  ......@.c.....@.
 156c 63e6e632 1306c705 9306b705 13163600  c..2..........6.
 157c 3306c900 03270600 130686ff 6318e600  3....'......c...
 158c 6f008029 03278700 6308e600 83264700  o..).'..c....&G.
 159c 93f6c6ff e3e8d7fe 0326c700 2326c400  .........&..#&..
 15ac 2324e400 23248600 23268700 6ff0dfd7  #$..#$..#&..o...
 15bc 13074001 6378f710 13074005 6366f72e  ..@.cx....@.cf..
 15cc 93d7c400 9385f706 1388e706 13963500  ..............5.
 15dc 6ff01fca 130e1e00 93773e00 13058500  o........w>.....
 15ec 63800710 8327c500 6ff05fd9 03268400  c....'..o._..&..
 15fc 93e51400 2322b400 2326f600 23a4c700  ....#"..#&..#...
 160c b3049400 232a9900 23289900 93e71600  ....#*..#(......
 161c 23a60401 23a40401 23a2f400 3307e400  #...#...#...3...
 162c 13850900 2320d700 ef000034 13058400  ....# .....4....
 163c 6ff0dfbe b307f400 03a74700 13850900  o.........G.....
 164c 13671700 23a2e700 ef000032 13058400  .g..#......2....
 165c 6ff0dfbc 93d53400 93878400 6ff05fb7  o.....4.....o._.
 166c 93e61400 2322d400 b3049400 232a9900  ....#"......#*..
 167c 23289900 93661700 23a60401 23a40401  #(...f..#...#...
 168c 23a2d400 b307f400 13850900 23a0e700  #...........#...
 169c ef00802d 13058400 6ff05fb8 13d76700  ...-....o._...g.
 16ac 13069703 93068703 13163600 6ff05fec  ..........6.o._.
 16bc 630c2407 03248900 032c8100 83274400  c.$..$...,...'D.
 16cc 6ff09fe0 9385c705 1388b705 13963500  o.............5.
 16dc 6ff01fba 83278300 9385f5ff 63906728  o....'......c.g(
 16ec 93f73500 130383ff e39607fe 03274900  ..5..........'I.
 16fc 9347f6ff b3f7e700 2322f900 13161600  .G......#"......
 170c e3e4c7ce e30206ce 3377f600 631a0700  ........3w..c...
 171c 13161600 3377f600 130e4e00 e30a07fe  ....3w....N.....
 172c 93050e00 6ff05fc4 372c0000 130c0c7a  ....o._.7,.....z
 173c 03270c00 3387ea00 2320ec00 83a68c63  .'..3...# .....c
 174c 9307f0ff 6386f618 b3874b41 b387e700  ....c.....KA....
 175c 2320fc00 93fc7b00 638c0c0c b38b9b41  # ....{.c......A
 176c b7170000 93878700 938b8b00 b3859741  ...............A
 177c b38a5b01 b3855541 93954501 13da4501  ..[...UA..E...E.
 178c 93050a00 13850900 ef000063 9307f0ff  ...........c....
 179c 6300f518 33057541 b30a4501 03270c00  c...3.uA..E..'..
 17ac 23247901 93e71a00 b305ea00 2320bc00  #$y.........# ..
 17bc 23a2fb00 e30624cf 9306f000 63f0660b  #.....$.....c.f.
 17cc 03274400 93074bff 93f787ff 13771700  .'D...K......w..
 17dc 3367f700 2322e400 13065000 3307f400  3g..#"....P.3...
 17ec 2322c700 2324c700 63e6f600 83a74b00  #"..#$..c.....K.
 17fc 6ff01fcb 93058400 13850900 eff08fe8  o...............
 180c 832b8900 83250c00 83a74b00 6ff05fc9  .+...%....K.o._.
 181c 938a0a01 6ff09fc3 93d62640 93071000  ....o.....&@....
 182c b397d700 3365f500 2322a900 6ff01fd7  ....3e..#"..o...
 183c b3855b01 b305b040 93954501 13da4501  ..[....@..E...E.
 184c 93050a00 13850900 ef000057 9307f0ff  ...........W....
 185c e312f5f4 130a0000 6ff05ff4 032c8100  ........o._..,..
 186c 93071000 23a2fb00 13850900 ef00c00f  ....#...........
 187c 13050000 032a8101 832a4101 032b0101  .....*...*A..+..
 188c 832bc100 832c4100 6ff05f99 93064005  .+...,A.o._...@.
 189c 63e4e604 13d7c700 1306f706 9306e706  c...............
 18ac 13163600 6ff0dfcc 13074015 6364f704  ..6.o.....@.cd..
 18bc 93d7f400 93858707 13887707 13963500  ..........w...5.
 18cc 6ff01f9b 03248900 83274400 6ff0dfbf  o....$...'D.o...
 18dc 23ac7c63 6ff01fe8 93064015 63e4e604  #.|co.....@.c...
 18ec 13d7f700 13068707 93067707 13163600  ..........w...6.
 18fc 6ff01fc8 13074055 6364f704 93d72401  o.....@Ucd....$.
 190c 9385d707 1388c707 13963500 6ff05f96  ..........5.o._.
 191c 938c8cff b38a9a01 b38a7a41 130a0000  ..........zA....
 192c 6ff0dfe7 93064055 63e4e602 13d72701  o.....@Uc.....'.
 193c 1306d707 9306c707 13163600 6ff05fc3  ..........6.o._.
 194c 1306803f 9305f007 1308e007 6ff05f92  ...?........o._.
 195c 1306803f 9306e007 6ff09fc1 83274900  ...?....o....'I.
 196c 6ff0dfd9                             o...            
Contents of section .text.__malloc_lock:
 1970 67800000                             g...            
Contents of section .text.__malloc_unlock:
 1974 67800000                             g...            
Contents of section .text._fclose_r:
 1978 130101ff 23261100 23202101 63880502  ....#&..# !.c...
 1988 23248100 23229100 13840500 93040500  #$..#"..........
 1998 63060500 83274503 638c070c 8317c400  c....'E.c.......
 19a8 63920702 03248100 83244100 8320c100  c....$...$A.. ..
 19b8 13090000 13050900 03290100 13010101  .........)......
 19c8 67800000 93050400 13850400 ef00c00b  g...............
 19d8 8327c402 13090500 638a0700 8325c401  .'......c....%..
 19e8 13850400 e7800700 63440506 8357c400  ........cD...W..
 19f8 93f70708 63960706 83250403 638c0500  ....c....%..c...
 1a08 93070404 6386f500 13850400 eff0cfc7  ....c...........
 1a18 23280402 83254404 63880500 13850400  #(...%D.c.......
 1a28 eff08fc6 23220404 efe01fc7 23160400  ....#"......#...
 1a38 efe0dfc6 8320c100 03248100 83244100  ..... ...$...$A.
 1a48 13050900 03290100 13010101 67800000  .....)......g...
 1a58 8357c400 1309f0ff 93f70708 e38e07f8  .W..............
 1a68 83250401 13850400 eff00fc2 6ff0dff8  .%..........o...
 1a78 efe05fc0 6ff09ff2                    .._.o...        
Contents of section .text.fclose:
 1a80 b7270000 93050500 03a50763 6ff0dfee  .'.........co...
Contents of section .text.__sflush_r:
 1a90 0397c500 130101fe 232c8100 23263101  ........#,..#&1.
 1aa0 232e1100 93778700 13840500 93090500  #....w..........
 1ab0 63900712 b7170000 93870780 83a64500  c.............E.
 1ac0 b367f700 2396f500 6352d018 03288402  .g..#...cR...(..
 1ad0 6304080e 232a9100 93163701 83a40900  c...#*....7.....
 1ae0 23a00900 8325c401 63ce0616 13060000  #....%..c.......
 1af0 93061000 13850900 e7000800 9307f0ff  ................
 1b00 13060500 6304f51a 8317c400 03288402  ....c........(..
 1b10 8325c401 93f74700 638e0700 03274400  .%....G.c....'D.
 1b20 83270403 3306e640 63860700 8327c403  .'..3..@c....'..
 1b30 3306f640 93060000 13850900 e7000800  3..@............
 1b40 9307f0ff 6314f512 83a60900 9307d001  ....c...........
 1b50 0317c400 63ead716 b7074020 93871700  ....c.....@ ....
 1b60 b3d7d700 93f71700 63800716 03260401  ........c....&..
 1b70 b7f7ffff 9387f77f b377f700 2316f400  .........w..#...
 1b80 23220400 2320c400 93173701 63d40700  #"..# ....7.c...
 1b90 63820610 83250403 23a09900 63840510  c....%..#...c...
 1ba0 93070404 6386f500 13850900 eff04fae  ....c.........O.
 1bb0 83244101 23280402 13050000 8320c101  .$A.#(....... ..
 1bc0 03248101 8329c100 13010102 67800000  .$...)......g...
 1bd0 23282101 03a90501 63020908 232a9100  #(!.....c...#*..
 1be0 83a40500 13773700 23a02501 b3842441  .....w7.#.%...$A
 1bf0 93070000 63140700 83a74501 2324f400  ....c.....E.#$..
 1c00 63489000 6f004005 3309a900 63569004  cH..o.@.3...cV..
 1c10 83274402 8325c401 93860400 13060900  .'D..%..........
 1c20 13850900 e7800700 b384a440 e34ea0fc  ...........@.N..
 1c30 0317c400 03290101 13670704 83244101  .....)...g...$A.
 1c40 2316e400 1305f0ff 6ff05ff7 83a6c503  #.......o._.....
 1c50 e34ed0e6 6ff05ff6 83244101 03290101  .N..o._..$A..)..
 1c60 6ff09ff5 03260405 6ff0dfea 0317c400  o....&..o.......
 1c70 83260401 b7f7ffff 9387f77f b377f700  .&...........w..
 1c80 2316f400 23220400 2320d400 93173701  #...#"..# ....7.
 1c90 e3d207f0 83250403 2328a404 23a09900  .....%..#(..#...
 1ca0 e39005f0 83244101 6ff01ff1 83a70900  .....$A.o.......
 1cb0 e38c07e4 1307d001 638ce700 13076001  ........c.....`.
 1cc0 6388e700 0317c400 13670704 6ff01ff7  c........g..o...
 1cd0 23a09900 83244101 6ff01fee           #....$A.o...    
Contents of section .text._fflush_r:
 1cdc 130101fe 232c8100 232e1100 13040500  ....#,..#.......
 1cec 63060500 83274503 638a0702 8397c500  c....'E.c.......
 1cfc 639c0700 8320c101 03248101 13050000  c.... ...$......
 1d0c 13010102 67800000 13050400 03248101  ....g........$..
 1d1c 8320c101 13010102 6ff0dfd6 2326b100  . ......o...#&..
 1d2c efe01f95 8325c100 6ff05ffc           .....%..o._.    
Contents of section .text.fflush:
 1d38 63020506 b7270000 93050500 03a50763  c....'.........c
 1d48 63060500 83274503 638c0700 8397c500  c....'E.c.......
 1d58 63960700 13050000 67800000 6ff0dfd2  c.......g...o...
 1d68 130101fe 2326b100 2324a100 232e1100  ....#&..#$..#...
 1d78 efe05f90 8325c100 03258100 8397c500  .._..%...%......
 1d88 63980702 8320c101 13050000 13010102  c.... ..........
 1d98 67800000 37260000 b7250000 37250000  g...7&...%..7%..
 1da8 1306860e 9385c5cd 1305850f 6fe0df91  ............o...
 1db8 8320c101 13010102 6ff01fcd           . ......o...    
Contents of section .text._sbrk_r:
 1dc4 130101ff 23248100 23229100 13040500  ....#$..#"......
 1dd4 b7240000 13850500 23261100 23ac0478  .$......#&..#..x
 1de4 ef000023 9307f0ff 630cf500 8320c100  ...#....c.... ..
 1df4 03248100 83244100 13010101 67800000  .$...$A.....g...
 1e04 83a78479 e38407fe 8320c100 2320f400  ...y..... ..# ..
 1e14 03248100 83244100 13010101 67800000  .$...$A.....g...
Contents of section .text.__libc_fini_array:
 1e24 130101ff 23248100 93070000 13040000  ....#$..........
 1e34 3304f440 23229100 23261100 93542440  3..@#"..#&...T$@
 1e44 63800402 1304c4ff 3304f400 83270400  c.......3....'..
 1e54 9384f4ff 1304c4ff e7800700 e39804fe  ................
 1e64 8320c100 03248100 83244100 13010101  . ...$...$A.....
 1e74 67800000                             g...            
Contents of section .text.__register_exitproc:
 1e78 37270000 8327c779 638c0704 03a74700  7'...'.yc.....G.
 1e88 1308f001 6342e808 13182700 63060502  ....cB....'.c...
 1e98 33830701 2324c308 83a88718 13061000  3...#$..........
 1ea8 3316e600 b3e8c800 23a41719 2324d310  3.......#...#$..
 1eb8 93062000 6308d502 13071700 23a2e700  .. .c.......#...
 1ec8 b3870701 23a4b700 13050000 67800000  ....#.......g...
 1ed8 b7270000 1388477d 232e0779 9387477d  .'....G}#..y..G}
 1ee8 6ff0dff9 83a6c718 13071700 23a2e700  o...........#...
 1ef8 b3e6c600 23a6d718 b3870701 23a4b700  ....#.......#...
 1f08 13050000 67800000 1305f0ff 67800000  ....g.......g...
Contents of section .text._close:
 1f18 130101ff 23261100 23248100 93089003  ....#&..#$......
 1f28 73000000 13040500 634c0500 8320c100  s.......cL... ..
 1f38 13050400 03248100 13010101 67800000  .....$......g...
 1f48 33048040 ef008018 23208500 1304f0ff  3..@....# ......
 1f58 6ff0dffd                             o...            
Contents of section .text._exit:
 1f5c 9308d005 73000000 63440500 6f000000  ....s...cD..o...
 1f6c 130101ff 23248100 13040500 23261100  ....#$......#&..
 1f7c 33048040 ef004015 23208500 6f000000  3..@..@.# ..o...
Contents of section .text._lseek:
 1f8c 130101ff 23261100 23248100 9308e003  ....#&..#$......
 1f9c 73000000 13040500 634c0500 8320c100  s.......cL... ..
 1fac 13050400 03248100 13010101 67800000  .....$......g...
 1fbc 33048040 ef004011 23208500 1304f0ff  3..@..@.# ......
 1fcc 6ff0dffd                             o...            
Contents of section .text._read:
 1fd0 130101ff 23261100 23248100 9308f003  ....#&..#$......
 1fe0 73000000 13040500 634c0500 8320c100  s.......cL... ..
 1ff0 13050400 03248100 13010101 67800000  .....$......g...
 2000 33048040 ef00000d 23208500 1304f0ff  3..@....# ......
 2010 6ff0dffd                             o...            
Contents of section .text._sbrk:
 2014 b7360000 03a74696 130101ff 23261100  .6....F.....#&..
 2024 93070500 63100702 9308600d 13050000  ....c.....`.....
 2034 73000000 1306f0ff 13070500 630ac502  s...........c...
 2044 23a2a696 9308600d 3385e700 73000000  #.....`.3...s...
 2054 03a74696 b387e700 631cf500 8320c100  ..F.....c.... ..
 2064 23a2a696 13050700 13010101 67800000  #...........g...
 2074 ef000006 8320c100 9307c000 2320f500  ..... ......# ..
 2084 1305f0ff 13010101 67800000           ........g...    
Contents of section .text._write:
 2090 130101ff 23261100 23248100 93080004  ....#&..#$......
 20a0 73000000 13040500 634c0500 8320c100  s.......cL... ..
 20b0 13050400 03248100 13010101 67800000  .....$......g...
 20c0 33048040 ef000001 23208500 1304f0ff  3..@....# ......
 20d0 6ff0dffd                             o...            
Contents of section .text.__errno:
 20d4 b7270000 03a50763 67800000           .'.....cg...    
Contents of section .rodata:
 20e0 04800011 00c00011                    ........        
Contents of section .data:
 20e8 00000000 03000000 5c260000 00000000  ........\&......
 20f8 00000000 5c260000 c4260000 2c270000  ....\&...&..,'..
 2108 00000000 00000000 00000000 00000000  ................
 2118 00000000 00000000 00000000 00000000  ................
 2128 00000000 00000000 00000000 00000000  ................
 2138 00000000 00000000 00000000 00000000  ................
 2148 00000000 00000000 00000000 00000000  ................
 2158 00000000 00000000 00000000 00000000  ................
 2168 00000000 00000000 00000000 00000000  ................
 2178 00000000 00000000 00000000 00000000  ................
 2188 00000000 00000000 01000000 00000000  ................
 2198 0e33cdab 34126de6 ecde0500 0b000000  .3..4.m.........
 21a8 00000000 00000000 00000000 00000000  ................
 21b8 00000000 00000000 00000000 00000000  ................
 21c8 00000000 00000000 00000000 00000000  ................
 21d8 00000000 00000000 00000000 00000000  ................
 21e8 00000000 00000000 00000000 00000000  ................
 21f8 00000000 00000000 00000000 00000000  ................
 2208 00000000 00000000 00000000 00000000  ................
 2218 00000000 00000000 18220000 18220000  ........."..."..
 2228 20220000 20220000 28220000 28220000   ".. "..("..("..
 2238 30220000 30220000 38220000 38220000  0"..0"..8"..8"..
 2248 40220000 40220000 48220000 48220000  @"..@"..H"..H"..
 2258 50220000 50220000 58220000 58220000  P"..P"..X"..X"..
 2268 60220000 60220000 68220000 68220000  `"..`"..h"..h"..
 2278 70220000 70220000 78220000 78220000  p"..p"..x"..x"..
 2288 80220000 80220000 88220000 88220000  ."..."..."..."..
 2298 90220000 90220000 98220000 98220000  ."..."..."..."..
 22a8 a0220000 a0220000 a8220000 a8220000  ."..."..."..."..
 22b8 b0220000 b0220000 b8220000 b8220000  ."..."..."..."..
 22c8 c0220000 c0220000 c8220000 c8220000  ."..."..."..."..
 22d8 d0220000 d0220000 d8220000 d8220000  ."..."..."..."..
 22e8 e0220000 e0220000 e8220000 e8220000  ."..."..."..."..
 22f8 f0220000 f0220000 f8220000 f8220000  ."..."..."..."..
 2308 00230000 00230000 08230000 08230000  .#...#...#...#..
 2318 10230000 10230000 18230000 18230000  .#...#...#...#..
 2328 20230000 20230000 28230000 28230000   #.. #..(#..(#..
 2338 30230000 30230000 38230000 38230000  0#..0#..8#..8#..
 2348 40230000 40230000 48230000 48230000  @#..@#..H#..H#..
 2358 50230000 50230000 58230000 58230000  P#..P#..X#..X#..
 2368 60230000 60230000 68230000 68230000  `#..`#..h#..h#..
 2378 70230000 70230000 78230000 78230000  p#..p#..x#..x#..
 2388 80230000 80230000 88230000 88230000  .#...#...#...#..
 2398 90230000 90230000 98230000 98230000  .#...#...#...#..
 23a8 a0230000 a0230000 a8230000 a8230000  .#...#...#...#..
 23b8 b0230000 b0230000 b8230000 b8230000  .#...#...#...#..
 23c8 c0230000 c0230000 c8230000 c8230000  .#...#...#...#..
 23d8 d0230000 d0230000 d8230000 d8230000  .#...#...#...#..
 23e8 e0230000 e0230000 e8230000 e8230000  .#...#...#...#..
 23f8 f0230000 f0230000 f8230000 f8230000  .#...#...#...#..
 2408 00240000 00240000 08240000 08240000  .$...$...$...$..
 2418 10240000 10240000 18240000 18240000  .$...$...$...$..
 2428 20240000 20240000 28240000 28240000   $.. $..($..($..
 2438 30240000 30240000 38240000 38240000  0$..0$..8$..8$..
 2448 40240000 40240000 48240000 48240000  @$..@$..H$..H$..
 2458 50240000 50240000 58240000 58240000  P$..P$..X$..X$..
 2468 60240000 60240000 68240000 68240000  `$..`$..h$..h$..
 2478 70240000 70240000 78240000 78240000  p$..p$..x$..x$..
 2488 80240000 80240000 88240000 88240000  .$...$...$...$..
 2498 90240000 90240000 98240000 98240000  .$...$...$...$..
 24a8 a0240000 a0240000 a8240000 a8240000  .$...$...$...$..
 24b8 b0240000 b0240000 b8240000 b8240000  .$...$...$...$..
 24c8 c0240000 c0240000 c8240000 c8240000  .$...$...$...$..
 24d8 d0240000 d0240000 d8240000 d8240000  .$...$...$...$..
 24e8 e0240000 e0240000 e8240000 e8240000  .$...$...$...$..
 24f8 f0240000 f0240000 f8240000 f8240000  .$...$...$...$..
 2508 00250000 00250000 08250000 08250000  .%...%...%...%..
 2518 10250000 10250000 18250000 18250000  .%...%...%...%..
 2528 20250000 20250000 28250000 28250000   %.. %..(%..(%..
 2538 30250000 30250000 38250000 38250000  0%..0%..8%..8%..
 2548 40250000 40250000 48250000 48250000  @%..@%..H%..H%..
 2558 50250000 50250000 58250000 58250000  P%..P%..X%..X%..
 2568 60250000 60250000 68250000 68250000  `%..`%..h%..h%..
 2578 70250000 70250000 78250000 78250000  p%..p%..x%..x%..
 2588 80250000 80250000 88250000 88250000  .%...%...%...%..
 2598 90250000 90250000 98250000 98250000  .%...%...%...%..
 25a8 a0250000 a0250000 a8250000 a8250000  .%...%...%...%..
 25b8 b0250000 b0250000 b8250000 b8250000  .%...%...%...%..
 25c8 c0250000 c0250000 c8250000 c8250000  .%...%...%...%..
 25d8 d0250000 d0250000 d8250000 d8250000  .%...%...%...%..
 25e8 e0250000 e0250000 e8250000 e8250000  .%...%...%...%..
 25f8 f0250000 f0250000 f8250000 f8250000  .%...%...%...%..
 2608 00260000 00260000 08260000 08260000  .&...&...&...&..
 2618 10260000 10260000 00000000           .&...&......    
Contents of section .eh_frame:
 2624 00000000                             ....            
Contents of section .fini_array:
 2628 64000000                             d...            
Contents of section .init_array:
 262c ac000000                             ....            
Contents of section .sdata._impure_ptr:
 2630 f8200000                             . ..            
Contents of section .init_array.00000:
 2634 e80b0000                             ....            
Contents of section .sdata.__malloc_sbrk_base:
 2638 ffffffff                             ....            
Contents of section .sdata.__malloc_trim_threshold:
 263c 00000200                             ....            
Contents of section .riscv.attributes:
 0000 411b0000 00726973 63760001 11000000  A....riscv......
 0010 04100572 76333269 32703100           ...rv32i2p1.    
Contents of section .comment:
 0000 4743433a 20282920 31332e32 2e300047  GCC: () 13.2.0.G
 0010 43433a20 28474e55 29203133 2e322e30  CC: (GNU) 13.2.0
 0020 00                                   .               
Contents of section .debug_info:
 0000 82020000 05000104 00000000 0e640000  .............d..
 0010 001d4500 00000000 00006f00 00000000  ..E.......o.....
 0020 00000000 0000062c 0000000a 3b000000  .......,....;...
 0030 0503e420 00000747 0000000f 36000000  ... ...G....6...
 0040 10040569 6e740011 40000000 06240000  ...int..@....$..
 0050 000b3b00 00000503 e0200000 081e0000  ..;...... ......
 0060 00457900 0000096e 00451040 0000000a  .Ey....n.E.@....
 0070 69004612 47000000 00124a00 0000012f  i.F.G.....J..../
 0080 06380100 00a00000 00019c2c 01000013  .8.........,....
 0090 3f000000 01300940 00000010 026c6564  ?....0.@.....led
 00a0 00310940 0000000c 00000014 56000000  .1.@........V...
 00b0 01320940 00000000 80153600 0000f600  .2.@......6.....
 00c0 00000269 00340e40 0000001e 00000005  ...i.4.@........
 00d0 5c000000 38010000 45000000 36036600  \...8...E...6.f.
 00e0 00002800 00000445 00000001 6f000000  ..(....E....o...
 00f0 02917800 00000454 0000000a 69003b0e  ..x....T....i.;.
 0100 40000000 055c0000 00880100 00600000  @....\.......`..
 0110 003d0366 00000034 00000004 60000000  .=.f...4....`...
 0120 016f0000 0002917c 00000000 16130000  .o.....|........
 0130 00012806 f0000000 48000000 019c8b01  ..(.....H.......
 0140 0000176c 65640001 28168b01 0000015a  ...led..(......Z
 0150 0b900100 00f40000 002a0000 002a6c01  .........*...*l.
 0160 0000039a 01000040 00000000 185c0000  .......@.....\..
 0170 00080100 00280000 00012b05 0c660000  .....(....+..f..
 0180 00016f00 00000291 7c000007 40000000  ..o.....|...@...
 0190 08340000 0023a601 0000096c 65640023  .4...#.....led.#
 01a0 168b0100 0000190b 00000001 1e054000  ..............@.
 01b0 0000d000 00001000 0000019c d0010000  ................
 01c0 0262746e 001f0940 00000049 00000000  .btn...@...I....
 01d0 1a060000 00010d05 40000000 e0020000  ........@.......
 01e0 48000000 019c4b02 0000026c 6564000f  H.....K....led..
 01f0 09400000 00520000 001b0000 00000110  .@...R..........
 0200 0a8b0100 0006a0ea 01000000 0b900100  ................
 0210 00e00200 000c0000 00112802 0000039a  ..........(.....
 0220 01000063 00000000 055c0000 00e00200  ...c.....\......
 0230 001b0000 00150c66 00000004 1b000000  .......f........
 0240 016f0000 0002917c 0000001c 90010000  .o.....|........
 0250 e0000000 10000000 019c6602 00000d9a  ..........f.....
 0260 01000001 5a001d5c 000000d8 0100002c  ....Z..\.......,
 0270 00000001 9c0d6600 0000015a 016f0000  ......f....Z.o..
 0280 0002917c 00002000 00000500 0104d501  ...|.. .........
 0290 00000173 04000000 00000014 b5000000  ...s............
 02a0 bc000000 01010000 0180               ..........      
Contents of section .debug_abbrev:
 0000 01340031 13021800 00023400 03083a21  .4.1......4...:!
 0010 013b0b39 0b491302 17000003 05003113  .;.9.I........1.
 0020 02170000 040b0155 17000005 1d013113  .......U......1.
 0030 52015517 58210159 0b572109 00000634  R.U.X!.Y.W!....4
 0040 00030e3a 21013b0b 39211549 133f1902  ...:!.;.9!.I.?..
 0050 18000007 0f000b21 04491300 00082e01  .......!.I......
 0060 3f19030e 3a21013b 0b392106 27192021  ?...:!.;.9!.'. !
 0070 01011300 00090500 03083a21 013b0b39  ..........:!.;.9
 0080 0b491300 000a3400 03083a21 013b0b39  .I....4...:!.;.9
 0090 0b491300 000b1d01 31135201 55175821  .I......1.R.U.X!
 00a0 01590b57 21050113 00000c05 0031131c  .Y.W!........1..
 00b0 21ff1f00 000d0500 31130218 00000e11  !.......1.......
 00c0 01250e13 0b031f1b 1f551711 01101700  .%.......U......
 00d0 000f2600 49130000 1024000b 0b3e0b03  ..&.I....$...>..
 00e0 08000011 35004913 0000122e 013f1903  ....5.I......?..
 00f0 0e3a0b3b 0b390b11 01120640 187a1901  .:.;.9.....@.z..
 0100 13000013 3400030e 3a0b3b0b 390b4913  ....4...:.;.9.I.
 0110 1c0b0000 14340003 0e3a0b3b 0b390b49  .....4...:.;.9.I
 0120 131c0500 00150b01 55170113 0000162e  ........U.......
 0130 013f1903 0e3a0b3b 0b390b27 19110112  .?...:.;.9.'....
 0140 0640187a 19011300 00170500 03083a0b  .@.z..........:.
 0150 3b0b390b 49130218 0000181d 01311311  ;.9.I........1..
 0160 01120658 0b590b57 0b000019 2e013f19  ...X.Y.W......?.
 0170 030e3a0b 3b0b390b 49131101 12064018  ..:.;.9.I.....@.
 0180 7a190113 00001a2e 013f1903 0e3a0b3b  z........?...:.;
 0190 0b390b27 19491311 01120640 187a1901  .9.'.I.....@.z..
 01a0 1300001b 3400030e 3a0b3b0b 390b4913  ....4...:.;.9.I.
 01b0 02180000 1c2e0131 13110112 0640187a  .......1.....@.z
 01c0 19011300 001d2e01 31131101 12064018  ........1.....@.
 01d0 7a190000 00011100 10171101 120f030e  z...............
 01e0 1b0e250e 13050000 00                 ..%......       
Contents of section .debug_loclists:
 0000 6d000000 05000400 00000000 06380100  m............8..
 0010 0004001c 02319f04 1ca00101 5d000838  .....1......]..8
 0020 0100001c 02309f00 08580100 0020040a  .....0...X... ..
 0030 ff0f9f00 089c0100 0020040a ff0f9f00  ......... ......
 0040 08040100 0004015a 0008d800 00000401  .......Z........
 0050 5a0006e0 02000004 001c0231 9f041c48  Z..........1...H
 0060 015d0008 e0020000 1406a0ea 01000000  .]..............
 0070 00                                   .               
Contents of section .debug_aranges:
 0000 24000000 02000000 00000400 00000000  $...............
 0010 d0000000 34010000 e0020000 48000000  ....4.......H...
 0020 00000000 00000000 1c000000 02008602  ................
 0030 00000400 00000000 00000000 10000000  ................
 0040 00000000 00000000                    ........        
Contents of section .debug_rnglists:
 0000 79000000 05000400 00000000 05e00200  y...............
 0010 00040000 04040c04 10140005 e0020000  ................
 0020 04000404 181c0424 480005f4 00000004  .......$H.......
 0030 00040410 14000538 01000004 00040410  .......8........
 0040 50045458 00053801 00000400 04041418  P.TX..8.........
 0050 04204000 05880100 00040004 04084000  . @...........@.
 0060 05880100 00040004 040c1004 14340007  .............4..
 0070 d0000000 b40207e0 02000048 00        ...........H.   
Contents of section .debug_line:
 0000 6f040000 05000400 2a000000 010101fb  o.......*.......
 0010 0e0d0001 01010100 00000100 00010101  ................
 0020 1f010000 00000201 1f020f02 45000000  ............E...
 0030 00450000 00000510 000502e0 02000003  .E..............
 0040 0c010505 03020900 00010301 09000001  ................
 0050 03010900 00010313 09000001 05130002  ................
 0060 04010603 23090000 01050e03 5d090400  ....#.......]...
 0070 01051003 69090800 01050e03 17090400  ....i...........
 0080 01050506 03010904 00010512 06036f09  ..............o.
 0090 00000105 13000204 01033309 04000105  ..........3.....
 00a0 0506034b 09040001 05090301 09000001  ...K............
 00b0 050d0603 00090000 01050906 03010904  ................
 00c0 00010512 06030009 00000105 09000204  ................
 00d0 01060301 09040001 05050331 09000001  ...........1....
 00e0 03010900 0001050c 06030009 00000105  ................
 00f0 13000204 01060300 09040001 05190002  ................
 0100 04030300 09080001 05130002 04010300  ................
 0110 090c0001 090c0000 0101050f 000502d0  ................
 0120 00000003 1d010505 03010900 00010509  ................
 0130 06030009 00000105 05060301 09080001  ................
 0140 05010603 01090000 01051b06 03020908  ................
 0150 00010505 03010900 00010510 06030009  ................
 0160 00000105 0e030009 04000105 05060301  ................
 0170 09080001 05010603 01090000 01051b06  ................
 0180 03020904 00010505 03010900 00010511  ................
 0190 06030009 00000105 0e037b09 04000105  ..........{.....
 01a0 1b030409 04000105 11030109 04000105  ................
 01b0 0a030009 04000105 05060301 09040001  ................
 01c0 037a0900 0001050e 06030009 00000105  .z..............
 01d0 05060301 09040001 03060900 0001031b  ................
 01e0 09000001 03010900 0001050c 06030009  ................
 01f0 00000105 13000204 01060300 09040001  ................
 0200 05190002 04030300 09100001 05130002  ................
 0210 04010300 090c0001 05010603 66090800  ............f...
 0220 01051406 03020908 00010505 03010900  ................
 0230 00010301 09000001 03010900 00010302  ................
 0240 09000001 050a0300 09000001 05140002  ................
 0250 04010300 09000001 05130002 04010603  ................
 0260 13090000 01051403 68090400 01030009  ........h.......
 0270 04000105 09030209 04000105 12030409  ................
 0280 04000105 13000204 01031209 04000105  ................
 0290 0d037109 04000105 0906037d 09040001  ..q........}....
 02a0 05120603 00090000 01050906 03010904  ................
 02b0 00010505 03100900 00010301 09000001  ................
 02c0 050c0603 00090000 01051300 02040106  ................
 02d0 03000904 00010519 00020403 03000908  ................
 02e0 00010513 00020401 0300090c 00010505  ................
 02f0 03010908 00010509 036f0900 0001050d  .........o......
 0300 06030009 00000105 09060301 09040001  ................
 0310 05140002 04010603 7c090000 01050d03  ........|.......
 0320 04090400 01052200 02040306 037c0904  ......"......|..
 0330 00010514 00020401 03000900 00010513  ................
 0340 00020401 06031309 04000105 12037509  ..............u.
 0350 08000105 13000204 01030b09 04000105  ................
 0360 09060375 09040001 05120603 00090000  ...u............
 0370 01050906 03010904 00010505 03090900  ................
 0380 00010301 09000001 050c0603 00090000  ................
 0390 01051300 02040106 03000904 00010519  ................
 03a0 00020403 03000908 00010513 00020401  ................
 03b0 0300090c 00010505 03010908 00010509  ................
 03c0 03760900 00010514 00020401 06037d09  .v............}.
 03d0 00000105 0d030309 04000105 22000204  ............"...
 03e0 0306037d 09040001 05140002 04010300  ...}............
 03f0 09000001 05050306 09040001 050e0603  ................
 0400 00090000 01050506 03010908 00010501  ................
 0410 06030109 00000105 13060302 09080001  ................
 0420 05050301 09000001 03010900 00010513  ................
 0430 06037e09 00000105 0c030209 04000105  ..~.............
 0440 13000204 01060300 09040001 05190002  ................
 0450 04030300 09080001 05130002 04010300  ................
 0460 090c0001 05010603 02090800 01090800  ................
 0470 0001014c 00000005 0004002a 00000001  ...L.......*....
 0480 0101fb0e 0d000101 01010000 00010000  ................
 0490 0101011f 01000000 0002011f 020f024c  ...............L
 04a0 00000000 4c000000 00000502 00000000  ....L...........
 04b0 17030209 08000103 03090400 01090400  ................
 04c0 000101                               ...             
Contents of section .debug_str:
 0000 705f6c65 64006d61 696e0067 65745f62  p_led.main.get_b
 0010 746e0074 6f67676c 655f6c65 64006465  tn.toggle_led.de
 0020 6c617900 42544e5f 52454700 4c45445f  lay.BTN_REG.LED_
 0030 52454700 6f757470 75745f6c 65640074  REG.output_led.t
 0040 6f74616c 5f6c6564 73006a6f 686e736f  otal_leds.johnso
 0050 6e5f6c65 64006c65 66745f6d 6f73745f  n_led.left_most_
 0060 6c656400 474e5520 43313720 31332e32  led.GNU C17 13.2
 0070 2e30202d 6d616269 3d696c70 3332202d  .0 -mabi=ilp32 -
 0080 6d74756e 653d726f 636b6574 202d6d69  mtune=rocket -mi
 0090 73612d73 7065633d 32303139 31323133  sa-spec=20191213
 00a0 202d6d61 7263683d 72763332 69202d67   -march=rv32i -g
 00b0 202d4f33 00696e69 742e7300 2f6d6e74   -O3.init.s./mnt
 00c0 2f632f55 73657273 2f44346e 6e792f44  /c/Users/D4nny/D
 00d0 6f63756d 656e7473 2f506970 656c696e  ocuments/Pipelin
 00e0 65524953 43564361 6c506f6c 792f7072  eRISCVCalPoly/pr
 00f0 6f677261 6d732f6c 65645f73 68696674  ograms/led_shift
 0100 00474e55 20415320 322e3431 00        .GNU AS 2.41.   
Contents of section .debug_line_str:
 0000 2f6d6e74 2f632f55 73657273 2f44346e  /mnt/c/Users/D4n
 0010 6e792f44 6f63756d 656e7473 2f506970  ny/Documents/Pip
 0020 656c696e 65524953 43564361 6c506f6c  elineRISCVCalPol
 0030 792f7072 6f677261 6d732f6c 65645f73  y/programs/led_s
 0040 68696674 006d6169 6e2e6300 696e6974  hift.main.c.init
 0050 2e7300                               .s.             
Contents of section .debug_frame:
 0000 0c000000 ffffffff 0300017c 010d0200  ...........|....
 0010 10000000 00000000 e0020000 48000000  ............H...
 0020 500e1000 0c000000 00000000 d0000000  P...............
 0030 10000000 0c000000 00000000 e0000000  ................
 0040 10000000 14000000 00000000 f0000000  ................
 0050 48000000 4c0e1078 0e000000 14000000  H...L..x........
 0060 00000000 38010000 a0000000 480e1002  ....8.......H...
 0070 940e0000 14000000 00000000 d8010000  ................
 0080 2c000000 440e1064 0e000000           ,...D..d....    

Disassembly of section .text.init:

00000000 <entry>:
# RISC-V baremetal init.s
# This code is executed first.

.section .text.init
entry:
    la    sp, __sp      # set up the stack pointer, using a constant defined in the linker script.
   0:	auipc	sp,0x10
   4:	mv	sp,sp
    #call _start		    # use this if using C runtime, std c library
    call main           # call the main function if barebones assembly/C
   8:	jal	2e0 <main>

0000000c <end>:

end:
    j end               # loop when finished if there is no environment to return to.
   c:	j	c <end>

Disassembly of section .text:

00000010 <_start>:
  10:	auipc	gp,0x1
  14:	add	gp,gp,-1328 # ae0 <__global_pointer$>
  18:	auipc	a0,0x2
  1c:	add	a0,a0,1576 # 2640 <completed.1>
  20:	auipc	a2,0x2
  24:	add	a2,a2,1596 # 265c <__sf>
  28:	sub	a2,a2,a0
  2c:	li	a1,0
  30:	jal	204 <memset>
  34:	auipc	a0,0x1
  38:	add	a0,a0,-764 # d38 <atexit>
  3c:	beqz	a0,4c <_start+0x3c>
  40:	auipc	a0,0x2
  44:	add	a0,a0,-540 # 1e24 <__libc_fini_array>
  48:	jal	d38 <atexit>
  4c:	jal	b5c <__libc_init_array>
  50:	lw	a0,0(sp) # 10000 <__sp>
  54:	add	a1,sp,4
  58:	li	a2,0
  5c:	jal	2e0 <main>
  60:	j	328 <exit>

00000064 <__do_global_dtors_aux>:
  64:	add	sp,sp,-16
  68:	sw	s0,8(sp)
  6c:	lui	s0,0x2
  70:	lbu	a5,1600(s0) # 2640 <completed.1>
  74:	sw	ra,12(sp)
  78:	bnez	a5,9c <__do_global_dtors_aux+0x38>
  7c:	li	a5,0
  80:	beqz	a5,94 <__do_global_dtors_aux+0x30>
  84:	lui	a0,0x2
  88:	add	a0,a0,1572 # 2624 <__EH_FRAME_BEGIN__>
  8c:	auipc	ra,0x0
  90:	jalr	zero # 0 <entry>
  94:	li	a5,1
  98:	sb	a5,1600(s0)
  9c:	lw	ra,12(sp)
  a0:	lw	s0,8(sp)
  a4:	add	sp,sp,16
  a8:	ret

000000ac <frame_dummy>:
  ac:	li	a5,0
  b0:	beqz	a5,cc <frame_dummy+0x20>
  b4:	lui	a1,0x2
  b8:	lui	a0,0x2
  bc:	add	a1,a1,1604 # 2644 <object.0>
  c0:	add	a0,a0,1572 # 2624 <__EH_FRAME_BEGIN__>
  c4:	auipc	t1,0x0
  c8:	jr	zero # 0 <entry>
  cc:	ret

000000d0 <get_btn>:
    }
    return 0;
}

int get_btn() {
    int btn = *BTN_REG;
  d0:	lui	a5,0x11008
  d4:	lw	a0,4(a5) # 11008004 <__sp+0x10ff8004>
    return btn & 0xf;
}
  d8:	and	a0,a0,15
  dc:	ret

000000e0 <output_led>:

void output_led(int* led) {
    *LED_REG = *led;
  e0:	lw	a4,0(a0)
  e4:	lui	a5,0x1100c
  e8:	sw	a4,0(a5) # 1100c000 <__sp+0x10ffc000>
    return;
}
  ec:	ret

000000f0 <toggle_led>:

void toggle_led(int* led) {
    *led = *led ^ 1;
  f0:	lw	a5,0(a0)
    *LED_REG = *led;
  f4:	lui	a3,0x1100c
void toggle_led(int* led) {
  f8:	add	sp,sp,-16
    *led = *led ^ 1;
  fc:	xor	a5,a5,1
 100:	sw	a5,0(a0)
    *LED_REG = *led;
 104:	sw	a5,0(a3) # 1100c000 <__sp+0x10ffc000>
    return;
}

void delay(int n) {
    volatile int i;
    for (i = 0; i < n; i++);
 108:	sw	zero,12(sp)
 10c:	lw	a5,12(sp)
 110:	lui	a4,0x1
 114:	add	a4,a4,-2 # ffe <_free_r+0x16e>
 118:	blt	a4,a5,130 <toggle_led+0x40>
 11c:	lw	a5,12(sp)
 120:	add	a5,a5,1
 124:	sw	a5,12(sp)
 128:	lw	a5,12(sp)
 12c:	bge	a4,a5,11c <toggle_led+0x2c>
}
 130:	add	sp,sp,16
 134:	ret

00000138 <johnson_led>:
    for (i = 0; i < n; i++);
 138:	lui	a4,0x1
void johnson_led() {
 13c:	add	sp,sp,-16
 140:	li	a2,16
    int led = 0x0001;
 144:	li	a3,1
        *LED_REG = led;
 148:	lui	a0,0x1100c
    for (i = 0; i < n; i++);
 14c:	add	a4,a4,-2 # ffe <_free_r+0x16e>
        led = led | left_most_led;
 150:	lui	a1,0x8
        *LED_REG = led;
 154:	sw	a3,0(a0) # 1100c000 <__sp+0x10ffc000>
    for (i = 0; i < n; i++);
 158:	sw	zero,8(sp)
 15c:	lw	a5,8(sp)
 160:	blt	a4,a5,178 <johnson_led+0x40>
 164:	lw	a5,8(sp)
 168:	add	a5,a5,1
 16c:	sw	a5,8(sp)
 170:	lw	a5,8(sp)
 174:	bge	a4,a5,164 <johnson_led+0x2c>
        led = led >> 1;
 178:	sra	a3,a3,0x1
    for (int i=0; i<total_leds; i++) {
 17c:	add	a2,a2,-1
        led = led | left_most_led;
 180:	or	a3,a3,a1
    for (int i=0; i<total_leds; i++) {
 184:	bnez	a2,154 <johnson_led+0x1c>
    for (i = 0; i < n; i++);
 188:	lui	a4,0x1
 18c:	li	a2,16
        *LED_REG = led;
 190:	lui	a1,0x1100c
    for (i = 0; i < n; i++);
 194:	add	a4,a4,-2 # ffe <_free_r+0x16e>
        *LED_REG = led;
 198:	sw	a3,0(a1) # 1100c000 <__sp+0x10ffc000>
    for (i = 0; i < n; i++);
 19c:	sw	zero,12(sp)
 1a0:	lw	a5,12(sp)
 1a4:	blt	a4,a5,1bc <johnson_led+0x84>
 1a8:	lw	a5,12(sp)
 1ac:	add	a5,a5,1
 1b0:	sw	a5,12(sp)
 1b4:	lw	a5,12(sp)
 1b8:	bge	a4,a5,1a8 <johnson_led+0x70>
    for (int i=0; i<total_leds; i++) {
 1bc:	add	a2,a2,-1
        led = led >> 1;
 1c0:	sra	a3,a3,0x1
    for (int i=0; i<total_leds; i++) {
 1c4:	bnez	a2,198 <johnson_led+0x60>
    *LED_REG = 0x0000;
 1c8:	lui	a5,0x1100c
 1cc:	sw	zero,0(a5) # 1100c000 <__sp+0x10ffc000>
}
 1d0:	add	sp,sp,16
 1d4:	ret

000001d8 <delay>:
void delay(int n) {
 1d8:	add	sp,sp,-16
    for (i = 0; i < n; i++);
 1dc:	sw	zero,12(sp)
 1e0:	lw	a5,12(sp)
 1e4:	bge	a5,a0,1fc <delay+0x24>
 1e8:	lw	a5,12(sp)
 1ec:	add	a5,a5,1
 1f0:	sw	a5,12(sp)
 1f4:	lw	a5,12(sp)
 1f8:	blt	a5,a0,1e8 <delay+0x10>
    return;
}
 1fc:	add	sp,sp,16
 200:	ret

00000204 <memset>:
 204:	li	t1,15
 208:	mv	a4,a0
 20c:	bgeu	t1,a2,248 <memset+0x44>
 210:	and	a5,a4,15
 214:	bnez	a5,2b4 <memset+0xb0>
 218:	bnez	a1,29c <memset+0x98>
 21c:	and	a3,a2,-16
 220:	and	a2,a2,15
 224:	add	a3,a3,a4
 228:	sw	a1,0(a4)
 22c:	sw	a1,4(a4)
 230:	sw	a1,8(a4)
 234:	sw	a1,12(a4)
 238:	add	a4,a4,16
 23c:	bltu	a4,a3,228 <memset+0x24>
 240:	bnez	a2,248 <memset+0x44>
 244:	ret
 248:	sub	a3,t1,a2
 24c:	sll	a3,a3,0x2
 250:	auipc	t0,0x0
 254:	add	a3,a3,t0
 258:	jr	12(a3)
 25c:	sb	a1,14(a4)
 260:	sb	a1,13(a4)
 264:	sb	a1,12(a4)
 268:	sb	a1,11(a4)
 26c:	sb	a1,10(a4)
 270:	sb	a1,9(a4)
 274:	sb	a1,8(a4)
 278:	sb	a1,7(a4)
 27c:	sb	a1,6(a4)
 280:	sb	a1,5(a4)
 284:	sb	a1,4(a4)
 288:	sb	a1,3(a4)
 28c:	sb	a1,2(a4)
 290:	sb	a1,1(a4)
 294:	sb	a1,0(a4)
 298:	ret
 29c:	zext.b	a1,a1
 2a0:	sll	a3,a1,0x8
 2a4:	or	a1,a1,a3
 2a8:	sll	a3,a1,0x10
 2ac:	or	a1,a1,a3
 2b0:	j	21c <memset+0x18>
 2b4:	sll	a3,a5,0x2
 2b8:	auipc	t0,0x0
 2bc:	add	a3,a3,t0
 2c0:	mv	t0,ra
 2c4:	jalr	-96(a3)
 2c8:	mv	ra,t0
 2cc:	add	a5,a5,-16
 2d0:	sub	a4,a4,a5
 2d4:	add	a2,a2,a5
 2d8:	bgeu	t1,a2,248 <memset+0x44>
 2dc:	j	218 <memset+0x14>

Disassembly of section .text.startup:

000002e0 <main>:
    for (i = 0; i < n; i++);
 2e0:	lui	a4,0x1
    *LED_REG = *led;
 2e4:	lui	a5,0x1100c
 2e8:	li	a3,1
int main(void) {
 2ec:	add	sp,sp,-16
    *LED_REG = *led;
 2f0:	sw	a3,0(a5) # 1100c000 <__sp+0x10ffc000>
        *LED_REG = led;
 2f4:	lui	a2,0x1100c
    for (i = 0; i < n; i++);
 2f8:	add	a4,a4,-2 # ffe <_free_r+0x16e>
        led ^= 1;
 2fc:	xor	a3,a3,1
        *LED_REG = led;
 300:	sw	a3,0(a2) # 1100c000 <__sp+0x10ffc000>
    for (i = 0; i < n; i++);
 304:	sw	zero,12(sp)
 308:	lw	a5,12(sp)
 30c:	blt	a4,a5,2fc <main+0x1c>
 310:	lw	a5,12(sp)
 314:	add	a5,a5,1
 318:	sw	a5,12(sp)
 31c:	lw	a5,12(sp)
 320:	bge	a4,a5,310 <main+0x30>
 324:	j	2fc <main+0x1c>

Disassembly of section .text.exit:

00000328 <exit>:
 328:	add	sp,sp,-16
 32c:	li	a1,0
 330:	sw	s0,8(sp)
 334:	sw	ra,12(sp)
 338:	mv	s0,a0
 33c:	jal	c00 <__call_exitprocs>
 340:	lui	a5,0x2
 344:	lw	a5,1940(a5) # 2794 <__stdio_exit_handler>
 348:	beqz	a5,350 <exit+0x28>
 34c:	jalr	a5
 350:	mv	a0,s0
 354:	jal	1f5c <_exit>

Disassembly of section .text.__fp_lock:

00000358 <__fp_lock>:
 358:	li	a0,0
 35c:	ret

Disassembly of section .text.stdio_exit_handler:

00000360 <stdio_exit_handler>:
 360:	lui	a2,0x2
 364:	lui	a1,0x2
 368:	lui	a0,0x2
 36c:	add	a2,a2,232 # 20e8 <__sglue>
 370:	add	a1,a1,-1672 # 1978 <_fclose_r>
 374:	add	a0,a0,248 # 20f8 <_impure_data>
 378:	j	6d0 <_fwalk_sglue>

Disassembly of section .text.cleanup_stdio:

0000037c <cleanup_stdio>:
 37c:	lw	a1,4(a0)
 380:	add	sp,sp,-16
 384:	lui	a5,0x2
 388:	sw	s0,8(sp)
 38c:	sw	ra,12(sp)
 390:	add	a5,a5,1628 # 265c <__sf>
 394:	mv	s0,a0
 398:	beq	a1,a5,3a0 <cleanup_stdio+0x24>
 39c:	jal	1978 <_fclose_r>
 3a0:	lw	a1,8(s0)
 3a4:	lui	a5,0x2
 3a8:	add	a5,a5,1732 # 26c4 <__sf+0x68>
 3ac:	beq	a1,a5,3b8 <cleanup_stdio+0x3c>
 3b0:	mv	a0,s0
 3b4:	jal	1978 <_fclose_r>
 3b8:	lw	a1,12(s0)
 3bc:	lui	a5,0x2
 3c0:	add	a5,a5,1836 # 272c <__sf+0xd0>
 3c4:	beq	a1,a5,3dc <cleanup_stdio+0x60>
 3c8:	mv	a0,s0
 3cc:	lw	s0,8(sp)
 3d0:	lw	ra,12(sp)
 3d4:	add	sp,sp,16
 3d8:	j	1978 <_fclose_r>
 3dc:	lw	ra,12(sp)
 3e0:	lw	s0,8(sp)
 3e4:	add	sp,sp,16
 3e8:	ret

Disassembly of section .text.__fp_unlock:

000003ec <__fp_unlock>:
 3ec:	li	a0,0
 3f0:	ret

Disassembly of section .text.global_stdio_init.part.0:

000003f4 <global_stdio_init.part.0>:
 3f4:	add	sp,sp,-32
 3f8:	sw	s0,24(sp)
 3fc:	lui	a4,0x2
 400:	li	a5,864
 404:	lui	s0,0x2
 408:	lui	a0,0x2
 40c:	add	s0,s0,1628 # 265c <__sf>
 410:	sw	ra,28(sp)
 414:	sw	s1,20(sp)
 418:	sw	s2,16(sp)
 41c:	sw	s3,12(sp)
 420:	sw	s4,8(sp)
 424:	sw	a5,1940(a4) # 2794 <__stdio_exit_handler>
 428:	li	a2,8
 42c:	li	a5,4
 430:	li	a1,0
 434:	add	a0,a0,1720 # 26b8 <__sf+0x5c>
 438:	sw	a5,12(s0)
 43c:	sw	zero,0(s0)
 440:	sw	zero,4(s0)
 444:	sw	zero,8(s0)
 448:	sw	zero,100(s0)
 44c:	sw	zero,16(s0)
 450:	sw	zero,20(s0)
 454:	sw	zero,24(s0)
 458:	jal	204 <memset>
 45c:	lui	a5,0x10
 460:	lui	a0,0x2
 464:	li	s4,1924
 468:	li	s3,2024
 46c:	add	s2,gp,-624 # 870 <__sseek>
 470:	add	s1,gp,-504 # 8e8 <__sclose>
 474:	add	a5,a5,9 # 10009 <__sp+0x9>
 478:	li	a2,8
 47c:	li	a1,0
 480:	add	a0,a0,1824 # 2720 <__sf+0xc4>
 484:	sw	s4,32(s0)
 488:	sw	s3,36(s0)
 48c:	sw	s2,40(s0)
 490:	sw	s1,44(s0)
 494:	sw	a5,116(s0)
 498:	sw	s0,28(s0)
 49c:	sw	zero,104(s0)
 4a0:	sw	zero,108(s0)
 4a4:	sw	zero,112(s0)
 4a8:	sw	zero,204(s0)
 4ac:	sw	zero,120(s0)
 4b0:	sw	zero,124(s0)
 4b4:	sw	zero,128(s0)
 4b8:	jal	204 <memset>
 4bc:	lui	a5,0x20
 4c0:	lui	a0,0x2
 4c4:	lui	a4,0x2
 4c8:	add	a5,a5,18 # 20012 <__sp+0x10012>
 4cc:	add	a4,a4,1732 # 26c4 <__sf+0x68>
 4d0:	li	a2,8
 4d4:	li	a1,0
 4d8:	add	a0,a0,1928 # 2788 <__sf+0x12c>
 4dc:	sw	s4,136(s0)
 4e0:	sw	s3,140(s0)
 4e4:	sw	s2,144(s0)
 4e8:	sw	s1,148(s0)
 4ec:	sw	a5,220(s0)
 4f0:	sw	a4,132(s0)
 4f4:	sw	zero,208(s0)
 4f8:	sw	zero,212(s0)
 4fc:	sw	zero,216(s0)
 500:	sw	zero,308(s0)
 504:	sw	zero,224(s0)
 508:	sw	zero,228(s0)
 50c:	sw	zero,232(s0)
 510:	jal	204 <memset>
 514:	lui	a5,0x2
 518:	add	a5,a5,1836 # 272c <__sf+0xd0>
 51c:	sw	s4,240(s0)
 520:	sw	s3,244(s0)
 524:	sw	s2,248(s0)
 528:	sw	s1,252(s0)
 52c:	lw	ra,28(sp)
 530:	sw	a5,236(s0)
 534:	lw	s0,24(sp)
 538:	lw	s1,20(sp)
 53c:	lw	s2,16(sp)
 540:	lw	s3,12(sp)
 544:	lw	s4,8(sp)
 548:	add	sp,sp,32
 54c:	ret

Disassembly of section .text.__sfp:

00000550 <__sfp>:
 550:	lui	a5,0x2
 554:	lw	a5,1940(a5) # 2794 <__stdio_exit_handler>
 558:	add	sp,sp,-32
 55c:	sw	s3,12(sp)
 560:	sw	ra,28(sp)
 564:	sw	s0,24(sp)
 568:	sw	s1,20(sp)
 56c:	sw	s2,16(sp)
 570:	mv	s3,a0
 574:	beqz	a5,664 <__sfp+0x114>
 578:	lui	s2,0x2
 57c:	add	s2,s2,232 # 20e8 <__sglue>
 580:	li	s1,-1
 584:	lw	a5,4(s2)
 588:	lw	s0,8(s2)
 58c:	add	a5,a5,-1
 590:	bgez	a5,5a0 <__sfp+0x50>
 594:	j	614 <__sfp+0xc4>
 598:	add	s0,s0,104
 59c:	beq	a5,s1,614 <__sfp+0xc4>
 5a0:	lh	a4,12(s0)
 5a4:	add	a5,a5,-1
 5a8:	bnez	a4,598 <__sfp+0x48>
 5ac:	lui	a5,0xffff0
 5b0:	add	a5,a5,1 # ffff0001 <__sp+0xfffe0001>
 5b4:	sw	a5,12(s0)
 5b8:	sw	zero,100(s0)
 5bc:	sw	zero,0(s0)
 5c0:	sw	zero,8(s0)
 5c4:	sw	zero,4(s0)
 5c8:	sw	zero,16(s0)
 5cc:	sw	zero,20(s0)
 5d0:	sw	zero,24(s0)
 5d4:	li	a2,8
 5d8:	li	a1,0
 5dc:	add	a0,s0,92
 5e0:	jal	204 <memset>
 5e4:	sw	zero,48(s0)
 5e8:	sw	zero,52(s0)
 5ec:	sw	zero,68(s0)
 5f0:	sw	zero,72(s0)
 5f4:	lw	ra,28(sp)
 5f8:	mv	a0,s0
 5fc:	lw	s0,24(sp)
 600:	lw	s1,20(sp)
 604:	lw	s2,16(sp)
 608:	lw	s3,12(sp)
 60c:	add	sp,sp,32
 610:	ret
 614:	lw	s0,0(s2)
 618:	beqz	s0,624 <__sfp+0xd4>
 61c:	mv	s2,s0
 620:	j	584 <__sfp+0x34>
 624:	li	a1,428
 628:	mv	a0,s3
 62c:	jal	119c <_malloc_r>
 630:	mv	s0,a0
 634:	beqz	a0,66c <__sfp+0x11c>
 638:	add	a0,a0,12
 63c:	li	a5,4
 640:	sw	zero,0(s0)
 644:	sw	a5,4(s0)
 648:	sw	a0,8(s0)
 64c:	li	a2,416
 650:	li	a1,0
 654:	jal	204 <memset>
 658:	sw	s0,0(s2)
 65c:	mv	s2,s0
 660:	j	584 <__sfp+0x34>
 664:	jal	3f4 <global_stdio_init.part.0>
 668:	j	578 <__sfp+0x28>
 66c:	sw	zero,0(s2)
 670:	li	a5,12
 674:	sw	a5,0(s3)
 678:	j	5f4 <__sfp+0xa4>

Disassembly of section .text.__sinit:

0000067c <__sinit>:
 67c:	lw	a5,52(a0)
 680:	beqz	a5,688 <__sinit+0xc>
 684:	ret
 688:	lui	a5,0x2
 68c:	lw	a4,1940(a5) # 2794 <__stdio_exit_handler>
 690:	li	a5,892
 694:	sw	a5,52(a0)
 698:	bnez	a4,684 <__sinit+0x8>
 69c:	j	3f4 <global_stdio_init.part.0>

Disassembly of section .text.__sfp_lock_acquire:

000006a0 <__sfp_lock_acquire>:
 6a0:	ret

Disassembly of section .text.__sfp_lock_release:

000006a4 <__sfp_lock_release>:
 6a4:	ret

Disassembly of section .text.__fp_lock_all:

000006a8 <__fp_lock_all>:
 6a8:	lui	a2,0x2
 6ac:	add	a2,a2,232 # 20e8 <__sglue>
 6b0:	li	a1,856
 6b4:	li	a0,0
 6b8:	j	6d0 <_fwalk_sglue>

Disassembly of section .text.__fp_unlock_all:

000006bc <__fp_unlock_all>:
 6bc:	lui	a2,0x2
 6c0:	add	a2,a2,232 # 20e8 <__sglue>
 6c4:	li	a1,1004
 6c8:	li	a0,0
 6cc:	j	6d0 <_fwalk_sglue>

Disassembly of section .text._fwalk_sglue:

000006d0 <_fwalk_sglue>:
 6d0:	add	sp,sp,-48
 6d4:	sw	s2,32(sp)
 6d8:	sw	s3,28(sp)
 6dc:	sw	s4,24(sp)
 6e0:	sw	s5,20(sp)
 6e4:	sw	s6,16(sp)
 6e8:	sw	s7,12(sp)
 6ec:	sw	ra,44(sp)
 6f0:	sw	s0,40(sp)
 6f4:	sw	s1,36(sp)
 6f8:	mv	s6,a0
 6fc:	mv	s7,a1
 700:	mv	s5,a2
 704:	li	s4,0
 708:	li	s3,1
 70c:	li	s2,-1
 710:	lw	s1,4(s5)
 714:	lw	s0,8(s5)
 718:	add	s1,s1,-1
 71c:	bltz	s1,74c <_fwalk_sglue+0x7c>
 720:	lhu	a5,12(s0)
 724:	bgeu	s3,a5,740 <_fwalk_sglue+0x70>
 728:	lh	a5,14(s0)
 72c:	mv	a1,s0
 730:	mv	a0,s6
 734:	beq	a5,s2,740 <_fwalk_sglue+0x70>
 738:	jalr	s7
 73c:	or	s4,s4,a0
 740:	add	s1,s1,-1
 744:	add	s0,s0,104
 748:	bne	s1,s2,720 <_fwalk_sglue+0x50>
 74c:	lw	s5,0(s5)
 750:	bnez	s5,710 <_fwalk_sglue+0x40>
 754:	lw	ra,44(sp)
 758:	lw	s0,40(sp)
 75c:	lw	s1,36(sp)
 760:	lw	s2,32(sp)
 764:	lw	s3,28(sp)
 768:	lw	s5,20(sp)
 76c:	lw	s6,16(sp)
 770:	lw	s7,12(sp)
 774:	mv	a0,s4
 778:	lw	s4,24(sp)
 77c:	add	sp,sp,48
 780:	ret

Disassembly of section .text.__sread:

00000784 <__sread>:
 784:	add	sp,sp,-16
 788:	sw	s0,8(sp)
 78c:	mv	s0,a1
 790:	lh	a1,14(a1)
 794:	sw	ra,12(sp)
 798:	jal	a84 <_read_r>
 79c:	bltz	a0,7bc <__sread+0x38>
 7a0:	lw	a5,80(s0)
 7a4:	lw	ra,12(sp)
 7a8:	add	a5,a5,a0
 7ac:	sw	a5,80(s0)
 7b0:	lw	s0,8(sp)
 7b4:	add	sp,sp,16
 7b8:	ret
 7bc:	lhu	a5,12(s0)
 7c0:	lui	a4,0xfffff
 7c4:	add	a4,a4,-1 # ffffefff <__sp+0xfffeefff>
 7c8:	and	a5,a5,a4
 7cc:	lw	ra,12(sp)
 7d0:	sh	a5,12(s0)
 7d4:	lw	s0,8(sp)
 7d8:	add	sp,sp,16
 7dc:	ret

Disassembly of section .text.__seofread:

000007e0 <__seofread>:
 7e0:	li	a0,0
 7e4:	ret

Disassembly of section .text.__swrite:

000007e8 <__swrite>:
 7e8:	lh	a5,12(a1)
 7ec:	add	sp,sp,-32
 7f0:	sw	s0,24(sp)
 7f4:	sw	s1,20(sp)
 7f8:	sw	s2,16(sp)
 7fc:	sw	s3,12(sp)
 800:	sw	ra,28(sp)
 804:	and	a4,a5,256
 808:	mv	s0,a1
 80c:	mv	s1,a0
 810:	mv	s2,a2
 814:	mv	s3,a3
 818:	bnez	a4,858 <__swrite+0x70>
 81c:	lui	a4,0xfffff
 820:	add	a4,a4,-1 # ffffefff <__sp+0xfffeefff>
 824:	and	a5,a5,a4
 828:	lh	a1,14(s0)
 82c:	sh	a5,12(s0)
 830:	lw	s0,24(sp)
 834:	lw	ra,28(sp)
 838:	mv	a3,s3
 83c:	mv	a2,s2
 840:	lw	s3,12(sp)
 844:	lw	s2,16(sp)
 848:	mv	a0,s1
 84c:	lw	s1,20(sp)
 850:	add	sp,sp,32
 854:	j	af0 <_write_r>
 858:	lh	a1,14(a1)
 85c:	li	a3,2
 860:	li	a2,0
 864:	jal	a18 <_lseek_r>
 868:	lh	a5,12(s0)
 86c:	j	81c <__swrite+0x34>

Disassembly of section .text.__sseek:

00000870 <__sseek>:
 870:	add	sp,sp,-16
 874:	sw	s0,8(sp)
 878:	mv	s0,a1
 87c:	lh	a1,14(a1)
 880:	sw	ra,12(sp)
 884:	jal	a18 <_lseek_r>
 888:	li	a5,-1
 88c:	beq	a0,a5,8bc <__sseek+0x4c>
 890:	lhu	a5,12(s0)
 894:	lui	a4,0x1
 898:	lw	ra,12(sp)
 89c:	or	a5,a5,a4
 8a0:	sll	a5,a5,0x10
 8a4:	sra	a5,a5,0x10
 8a8:	sw	a0,80(s0)
 8ac:	sh	a5,12(s0)
 8b0:	lw	s0,8(sp)
 8b4:	add	sp,sp,16
 8b8:	ret
 8bc:	lhu	a5,12(s0)
 8c0:	lui	a4,0xfffff
 8c4:	add	a4,a4,-1 # ffffefff <__sp+0xfffeefff>
 8c8:	and	a5,a5,a4
 8cc:	sll	a5,a5,0x10
 8d0:	sra	a5,a5,0x10
 8d4:	lw	ra,12(sp)
 8d8:	sh	a5,12(s0)
 8dc:	lw	s0,8(sp)
 8e0:	add	sp,sp,16
 8e4:	ret

Disassembly of section .text.__sclose:

000008e8 <__sclose>:
 8e8:	lh	a1,14(a1)
 8ec:	j	8f0 <_close_r>

Disassembly of section .text._close_r:

000008f0 <_close_r>:
 8f0:	add	sp,sp,-16
 8f4:	sw	s0,8(sp)
 8f8:	sw	s1,4(sp)
 8fc:	mv	s0,a0
 900:	lui	s1,0x2
 904:	mv	a0,a1
 908:	sw	ra,12(sp)
 90c:	sw	zero,1944(s1) # 2798 <errno>
 910:	jal	1f18 <_close>
 914:	li	a5,-1
 918:	beq	a0,a5,930 <_close_r+0x40>
 91c:	lw	ra,12(sp)
 920:	lw	s0,8(sp)
 924:	lw	s1,4(sp)
 928:	add	sp,sp,16
 92c:	ret
 930:	lw	a5,1944(s1)
 934:	beqz	a5,91c <_close_r+0x2c>
 938:	lw	ra,12(sp)
 93c:	sw	a5,0(s0)
 940:	lw	s0,8(sp)
 944:	lw	s1,4(sp)
 948:	add	sp,sp,16
 94c:	ret

Disassembly of section .text._reclaim_reent:

00000950 <_reclaim_reent>:
 950:	lui	a5,0x2
 954:	lw	a5,1584(a5) # 2630 <_impure_ptr>
 958:	beq	a5,a0,a14 <_reclaim_reent+0xc4>
 95c:	lw	a1,68(a0)
 960:	add	sp,sp,-32
 964:	sw	s1,20(sp)
 968:	sw	ra,28(sp)
 96c:	mv	s1,a0
 970:	beqz	a1,9c8 <_reclaim_reent+0x78>
 974:	sw	s2,16(sp)
 978:	sw	s3,12(sp)
 97c:	sw	s0,24(sp)
 980:	li	s2,0
 984:	li	s3,128
 988:	add	a5,a1,s2
 98c:	lw	s0,0(a5)
 990:	beqz	s0,9ac <_reclaim_reent+0x5c>
 994:	mv	a1,s0
 998:	lw	s0,0(s0)
 99c:	mv	a0,s1
 9a0:	jal	e90 <_free_r>
 9a4:	bnez	s0,994 <_reclaim_reent+0x44>
 9a8:	lw	a1,68(s1)
 9ac:	add	s2,s2,4
 9b0:	bne	s2,s3,988 <_reclaim_reent+0x38>
 9b4:	mv	a0,s1
 9b8:	jal	e90 <_free_r>
 9bc:	lw	s0,24(sp)
 9c0:	lw	s2,16(sp)
 9c4:	lw	s3,12(sp)
 9c8:	lw	a1,56(s1)
 9cc:	beqz	a1,9d8 <_reclaim_reent+0x88>
 9d0:	mv	a0,s1
 9d4:	jal	e90 <_free_r>
 9d8:	lw	a1,76(s1)
 9dc:	beqz	a1,9e8 <_reclaim_reent+0x98>
 9e0:	mv	a0,s1
 9e4:	jal	e90 <_free_r>
 9e8:	lw	a5,52(s1)
 9ec:	beqz	a5,a04 <_reclaim_reent+0xb4>
 9f0:	lw	ra,28(sp)
 9f4:	mv	a0,s1
 9f8:	lw	s1,20(sp)
 9fc:	add	sp,sp,32
 a00:	jr	a5
 a04:	lw	ra,28(sp)
 a08:	lw	s1,20(sp)
 a0c:	add	sp,sp,32
 a10:	ret
 a14:	ret

Disassembly of section .text._lseek_r:

00000a18 <_lseek_r>:
 a18:	add	sp,sp,-16
 a1c:	mv	a4,a1
 a20:	sw	s0,8(sp)
 a24:	sw	s1,4(sp)
 a28:	mv	a1,a2
 a2c:	mv	s0,a0
 a30:	lui	s1,0x2
 a34:	mv	a2,a3
 a38:	mv	a0,a4
 a3c:	sw	ra,12(sp)
 a40:	sw	zero,1944(s1) # 2798 <errno>
 a44:	jal	1f8c <_lseek>
 a48:	li	a5,-1
 a4c:	beq	a0,a5,a64 <_lseek_r+0x4c>
 a50:	lw	ra,12(sp)
 a54:	lw	s0,8(sp)
 a58:	lw	s1,4(sp)
 a5c:	add	sp,sp,16
 a60:	ret
 a64:	lw	a5,1944(s1)
 a68:	beqz	a5,a50 <_lseek_r+0x38>
 a6c:	lw	ra,12(sp)
 a70:	sw	a5,0(s0)
 a74:	lw	s0,8(sp)
 a78:	lw	s1,4(sp)
 a7c:	add	sp,sp,16
 a80:	ret

Disassembly of section .text._read_r:

00000a84 <_read_r>:
 a84:	add	sp,sp,-16
 a88:	mv	a4,a1
 a8c:	sw	s0,8(sp)
 a90:	sw	s1,4(sp)
 a94:	mv	a1,a2
 a98:	mv	s0,a0
 a9c:	lui	s1,0x2
 aa0:	mv	a2,a3
 aa4:	mv	a0,a4
 aa8:	sw	ra,12(sp)
 aac:	sw	zero,1944(s1) # 2798 <errno>
 ab0:	jal	1fd0 <_read>
 ab4:	li	a5,-1
 ab8:	beq	a0,a5,ad0 <_read_r+0x4c>
 abc:	lw	ra,12(sp)
 ac0:	lw	s0,8(sp)
 ac4:	lw	s1,4(sp)
 ac8:	add	sp,sp,16
 acc:	ret
 ad0:	lw	a5,1944(s1)
 ad4:	beqz	a5,abc <_read_r+0x38>
 ad8:	lw	ra,12(sp)
 adc:	sw	a5,0(s0)
 ae0:	lw	s0,8(sp)
 ae4:	lw	s1,4(sp)
 ae8:	add	sp,sp,16
 aec:	ret

Disassembly of section .text._write_r:

00000af0 <_write_r>:
 af0:	add	sp,sp,-16
 af4:	mv	a4,a1
 af8:	sw	s0,8(sp)
 afc:	sw	s1,4(sp)
 b00:	mv	a1,a2
 b04:	mv	s0,a0
 b08:	lui	s1,0x2
 b0c:	mv	a2,a3
 b10:	mv	a0,a4
 b14:	sw	ra,12(sp)
 b18:	sw	zero,1944(s1) # 2798 <errno>
 b1c:	jal	2090 <_write>
 b20:	li	a5,-1
 b24:	beq	a0,a5,b3c <_write_r+0x4c>
 b28:	lw	ra,12(sp)
 b2c:	lw	s0,8(sp)
 b30:	lw	s1,4(sp)
 b34:	add	sp,sp,16
 b38:	ret
 b3c:	lw	a5,1944(s1)
 b40:	beqz	a5,b28 <_write_r+0x38>
 b44:	lw	ra,12(sp)
 b48:	sw	a5,0(s0)
 b4c:	lw	s0,8(sp)
 b50:	lw	s1,4(sp)
 b54:	add	sp,sp,16
 b58:	ret

Disassembly of section .text.__libc_init_array:

00000b5c <__libc_init_array>:
 b5c:	add	sp,sp,-16
 b60:	sw	s0,8(sp)
 b64:	sw	s2,0(sp)
 b68:	li	a5,0
 b6c:	li	a4,0
 b70:	sw	ra,12(sp)
 b74:	sw	s1,4(sp)
 b78:	sub	s2,a5,a4
 b7c:	beq	a5,a4,ba0 <__libc_init_array+0x44>
 b80:	sra	s2,s2,0x2
 b84:	li	s0,0
 b88:	li	s1,0
 b8c:	lw	a5,0(s0)
 b90:	add	s1,s1,1
 b94:	add	s0,s0,4
 b98:	jalr	a5
 b9c:	bltu	s1,s2,b8c <__libc_init_array+0x30>
 ba0:	li	a5,0
 ba4:	li	a4,0
 ba8:	sub	s2,a5,a4
 bac:	sra	s2,s2,0x2
 bb0:	beq	a5,a4,bd0 <__libc_init_array+0x74>
 bb4:	li	s0,0
 bb8:	li	s1,0
 bbc:	lw	a5,0(s0)
 bc0:	add	s1,s1,1
 bc4:	add	s0,s0,4
 bc8:	jalr	a5
 bcc:	bltu	s1,s2,bbc <__libc_init_array+0x60>
 bd0:	lw	ra,12(sp)
 bd4:	lw	s0,8(sp)
 bd8:	lw	s1,4(sp)
 bdc:	lw	s2,0(sp)
 be0:	add	sp,sp,16
 be4:	ret

Disassembly of section .text.startup.register_fini:

00000be8 <register_fini>:
 be8:	li	a5,0
 bec:	beqz	a5,bfc <register_fini+0x14>
 bf0:	lui	a0,0x2
 bf4:	add	a0,a0,-476 # 1e24 <__libc_fini_array>
 bf8:	j	d38 <atexit>
 bfc:	ret

Disassembly of section .text.__call_exitprocs:

00000c00 <__call_exitprocs>:
 c00:	add	sp,sp,-48
 c04:	sw	s4,24(sp)
 c08:	lui	s4,0x2
 c0c:	sw	s2,32(sp)
 c10:	lw	s2,1948(s4) # 279c <__atexit>
 c14:	sw	ra,44(sp)
 c18:	beqz	s2,cc8 <__call_exitprocs+0xc8>
 c1c:	sw	s3,28(sp)
 c20:	sw	s5,20(sp)
 c24:	sw	s6,16(sp)
 c28:	sw	s7,12(sp)
 c2c:	sw	s0,40(sp)
 c30:	sw	s1,36(sp)
 c34:	sw	s8,8(sp)
 c38:	mv	s6,a0
 c3c:	mv	s7,a1
 c40:	li	s3,-1
 c44:	li	s5,1
 c48:	lw	s1,4(s2)
 c4c:	add	s0,s1,-1
 c50:	bltz	s0,cac <__call_exitprocs+0xac>
 c54:	sll	s1,s1,0x2
 c58:	add	s1,s2,s1
 c5c:	bnez	s7,cdc <__call_exitprocs+0xdc>
 c60:	lw	a5,4(s2)
 c64:	lw	a3,4(s1)
 c68:	add	a5,a5,-1
 c6c:	beq	a5,s0,d24 <__call_exitprocs+0x124>
 c70:	sw	zero,4(s1)
 c74:	beqz	a3,ca0 <__call_exitprocs+0xa0>
 c78:	lw	a5,392(s2)
 c7c:	sll	a4,s5,s0
 c80:	lw	s8,4(s2)
 c84:	and	a5,a4,a5
 c88:	bnez	a5,cf4 <__call_exitprocs+0xf4>
 c8c:	jalr	a3
 c90:	lw	a4,4(s2)
 c94:	lw	a5,1948(s4)
 c98:	bne	a4,s8,d18 <__call_exitprocs+0x118>
 c9c:	bne	a5,s2,d18 <__call_exitprocs+0x118>
 ca0:	add	s0,s0,-1
 ca4:	add	s1,s1,-4
 ca8:	bne	s0,s3,c5c <__call_exitprocs+0x5c>
 cac:	lw	s0,40(sp)
 cb0:	lw	s1,36(sp)
 cb4:	lw	s3,28(sp)
 cb8:	lw	s5,20(sp)
 cbc:	lw	s6,16(sp)
 cc0:	lw	s7,12(sp)
 cc4:	lw	s8,8(sp)
 cc8:	lw	ra,44(sp)
 ccc:	lw	s2,32(sp)
 cd0:	lw	s4,24(sp)
 cd4:	add	sp,sp,48
 cd8:	ret
 cdc:	lw	a5,260(s1)
 ce0:	beq	a5,s7,c60 <__call_exitprocs+0x60>
 ce4:	add	s0,s0,-1
 ce8:	add	s1,s1,-4
 cec:	bne	s0,s3,cdc <__call_exitprocs+0xdc>
 cf0:	j	cac <__call_exitprocs+0xac>
 cf4:	lw	a5,396(s2)
 cf8:	lw	a1,132(s1)
 cfc:	and	a4,a4,a5
 d00:	bnez	a4,d2c <__call_exitprocs+0x12c>
 d04:	mv	a0,s6
 d08:	jalr	a3
 d0c:	lw	a4,4(s2)
 d10:	lw	a5,1948(s4)
 d14:	beq	a4,s8,c9c <__call_exitprocs+0x9c>
 d18:	beqz	a5,cac <__call_exitprocs+0xac>
 d1c:	mv	s2,a5
 d20:	j	c48 <__call_exitprocs+0x48>
 d24:	sw	s0,4(s2)
 d28:	j	c74 <__call_exitprocs+0x74>
 d2c:	mv	a0,a1
 d30:	jalr	a3
 d34:	j	c90 <__call_exitprocs+0x90>

Disassembly of section .text.atexit:

00000d38 <atexit>:
 d38:	mv	a1,a0
 d3c:	li	a3,0
 d40:	li	a2,0
 d44:	li	a0,0
 d48:	j	1e78 <__register_exitproc>

Disassembly of section .text._malloc_trim_r:

00000d4c <_malloc_trim_r>:
 d4c:	add	sp,sp,-32
 d50:	sw	s3,12(sp)
 d54:	lui	s3,0x2
 d58:	sw	s0,24(sp)
 d5c:	sw	s1,20(sp)
 d60:	sw	s2,16(sp)
 d64:	sw	s4,8(sp)
 d68:	sw	ra,28(sp)
 d6c:	mv	s4,a1
 d70:	mv	s2,a0
 d74:	add	s3,s3,536 # 2218 <__malloc_av_>
 d78:	jal	1970 <__malloc_lock>
 d7c:	lw	a4,8(s3)
 d80:	lui	a5,0x1
 d84:	add	a5,a5,-17 # fef <_free_r+0x15f>
 d88:	lw	s1,4(a4)
 d8c:	lui	a4,0x1
 d90:	and	s1,s1,-4
 d94:	add	s0,s1,a5
 d98:	sub	s0,s0,s4
 d9c:	srl	s0,s0,0xc
 da0:	add	s0,s0,-1
 da4:	sll	s0,s0,0xc
 da8:	blt	s0,a4,dc4 <_malloc_trim_r+0x78>
 dac:	li	a1,0
 db0:	mv	a0,s2
 db4:	jal	1dc4 <_sbrk_r>
 db8:	lw	a5,8(s3)
 dbc:	add	a5,a5,s1
 dc0:	beq	a0,a5,df0 <_malloc_trim_r+0xa4>
 dc4:	mv	a0,s2
 dc8:	jal	1974 <__malloc_unlock>
 dcc:	lw	ra,28(sp)
 dd0:	lw	s0,24(sp)
 dd4:	lw	s1,20(sp)
 dd8:	lw	s2,16(sp)
 ddc:	lw	s3,12(sp)
 de0:	lw	s4,8(sp)
 de4:	li	a0,0
 de8:	add	sp,sp,32
 dec:	ret
 df0:	neg	a1,s0
 df4:	mv	a0,s2
 df8:	jal	1dc4 <_sbrk_r>
 dfc:	li	a5,-1
 e00:	beq	a0,a5,e54 <_malloc_trim_r+0x108>
 e04:	lui	a5,0x2
 e08:	add	a5,a5,1952 # 27a0 <__malloc_current_mallinfo>
 e0c:	lw	a4,0(a5)
 e10:	lw	a3,8(s3)
 e14:	sub	s1,s1,s0
 e18:	or	s1,s1,1
 e1c:	sub	a4,a4,s0
 e20:	mv	a0,s2
 e24:	sw	s1,4(a3)
 e28:	sw	a4,0(a5)
 e2c:	jal	1974 <__malloc_unlock>
 e30:	lw	ra,28(sp)
 e34:	lw	s0,24(sp)
 e38:	lw	s1,20(sp)
 e3c:	lw	s2,16(sp)
 e40:	lw	s3,12(sp)
 e44:	lw	s4,8(sp)
 e48:	li	a0,1
 e4c:	add	sp,sp,32
 e50:	ret
 e54:	li	a1,0
 e58:	mv	a0,s2
 e5c:	jal	1dc4 <_sbrk_r>
 e60:	lw	a4,8(s3)
 e64:	li	a3,15
 e68:	sub	a5,a0,a4
 e6c:	bge	a3,a5,dc4 <_malloc_trim_r+0x78>
 e70:	lui	a3,0x2
 e74:	lw	a3,1592(a3) # 2638 <__malloc_sbrk_base>
 e78:	or	a5,a5,1
 e7c:	sw	a5,4(a4) # 1004 <_free_r+0x174>
 e80:	sub	a0,a0,a3
 e84:	lui	a3,0x2
 e88:	sw	a0,1952(a3) # 27a0 <__malloc_current_mallinfo>
 e8c:	j	dc4 <_malloc_trim_r+0x78>

Disassembly of section .text._free_r:

00000e90 <_free_r>:
     e90:	beqz	a1,1014 <_free_r+0x184>
     e94:	add	sp,sp,-16
     e98:	sw	s0,8(sp)
     e9c:	sw	s1,4(sp)
     ea0:	mv	s0,a1
     ea4:	mv	s1,a0
     ea8:	sw	ra,12(sp)
     eac:	jal	1970 <__malloc_lock>
     eb0:	lw	a0,-4(s0)
     eb4:	add	a4,s0,-8
     eb8:	lui	a1,0x2
     ebc:	and	a5,a0,-2
     ec0:	add	a2,a4,a5
     ec4:	add	a1,a1,536 # 2218 <__malloc_av_>
     ec8:	lw	a3,4(a2)
     ecc:	lw	a6,8(a1)
     ed0:	and	a3,a3,-4
     ed4:	beq	a6,a2,1078 <_free_r+0x1e8>
     ed8:	sw	a3,4(a2)
     edc:	and	a0,a0,1
     ee0:	add	a6,a2,a3
     ee4:	bnez	a0,f84 <_free_r+0xf4>
     ee8:	lw	t1,-8(s0)
     eec:	lw	a6,4(a6)
     ef0:	lui	a0,0x2
     ef4:	sub	a4,a4,t1
     ef8:	lw	a7,8(a4)
     efc:	add	a0,a0,544 # 2220 <__malloc_av_+0x8>
     f00:	add	a5,a5,t1
     f04:	and	a6,a6,1
     f08:	beq	a7,a0,104c <_free_r+0x1bc>
     f0c:	lw	t1,12(a4)
     f10:	sw	t1,12(a7)
     f14:	sw	a7,8(t1) # cc <frame_dummy+0x20>
     f18:	beqz	a6,10cc <_free_r+0x23c>
     f1c:	or	a3,a5,1
     f20:	sw	a3,4(a4)
     f24:	sw	a5,0(a2)
     f28:	li	a3,511
     f2c:	bltu	a3,a5,fa4 <_free_r+0x114>
     f30:	and	a3,a5,-8
     f34:	add	a3,a3,8
     f38:	lw	a0,4(a1)
     f3c:	add	a3,a1,a3
     f40:	lw	a2,0(a3)
     f44:	srl	a6,a5,0x5
     f48:	li	a5,1
     f4c:	sll	a5,a5,a6
     f50:	or	a5,a5,a0
     f54:	add	a0,a3,-8
     f58:	sw	a0,12(a4)
     f5c:	sw	a2,8(a4)
     f60:	sw	a5,4(a1)
     f64:	sw	a4,0(a3)
     f68:	sw	a4,12(a2)
     f6c:	lw	s0,8(sp)
     f70:	lw	ra,12(sp)
     f74:	mv	a0,s1
     f78:	lw	s1,4(sp)
     f7c:	add	sp,sp,16
     f80:	j	1974 <__malloc_unlock>
     f84:	lw	a0,4(a6)
     f88:	and	a0,a0,1
     f8c:	beqz	a0,1018 <_free_r+0x188>
     f90:	or	a3,a5,1
     f94:	sw	a3,-4(s0)
     f98:	sw	a5,0(a2)
     f9c:	li	a3,511
     fa0:	bgeu	a3,a5,f30 <_free_r+0xa0>
     fa4:	srl	a3,a5,0x9
     fa8:	li	a2,4
     fac:	bltu	a2,a3,10d4 <_free_r+0x244>
     fb0:	srl	a3,a5,0x6
     fb4:	add	a0,a3,57
     fb8:	add	a2,a3,56
     fbc:	sll	a0,a0,0x3
     fc0:	add	a0,a1,a0
     fc4:	lw	a3,0(a0)
     fc8:	add	a0,a0,-8
     fcc:	bne	a0,a3,fdc <_free_r+0x14c>
     fd0:	j	112c <_free_r+0x29c>
     fd4:	lw	a3,8(a3)
     fd8:	beq	a0,a3,fe8 <_free_r+0x158>
     fdc:	lw	a2,4(a3)
     fe0:	and	a2,a2,-4
     fe4:	bltu	a5,a2,fd4 <_free_r+0x144>
     fe8:	lw	a0,12(a3)
     fec:	sw	a0,12(a4)
     ff0:	sw	a3,8(a4)
     ff4:	lw	s0,8(sp)
     ff8:	sw	a4,8(a0)
     ffc:	lw	ra,12(sp)
    1000:	mv	a0,s1
    1004:	lw	s1,4(sp)
    1008:	sw	a4,12(a3)
    100c:	add	sp,sp,16
    1010:	j	1974 <__malloc_unlock>
    1014:	ret
    1018:	lui	a0,0x2
    101c:	add	a5,a5,a3
    1020:	add	a0,a0,544 # 2220 <__malloc_av_+0x8>
    1024:	lw	a3,8(a2)
    1028:	beq	a3,a0,1108 <_free_r+0x278>
    102c:	lw	a6,12(a2)
    1030:	or	a0,a5,1
    1034:	add	a2,a4,a5
    1038:	sw	a6,12(a3)
    103c:	sw	a3,8(a6)
    1040:	sw	a0,4(a4)
    1044:	sw	a5,0(a2)
    1048:	j	f28 <_free_r+0x98>
    104c:	bnez	a6,118c <_free_r+0x2fc>
    1050:	lw	a1,8(a2)
    1054:	lw	a2,12(a2)
    1058:	add	a3,a3,a5
    105c:	or	a5,a3,1
    1060:	sw	a2,12(a1)
    1064:	sw	a1,8(a2)
    1068:	sw	a5,4(a4)
    106c:	add	a4,a4,a3
    1070:	sw	a3,0(a4)
    1074:	j	f6c <_free_r+0xdc>
    1078:	and	a0,a0,1
    107c:	add	a3,a5,a3
    1080:	bnez	a0,10a0 <_free_r+0x210>
    1084:	lw	a0,-8(s0)
    1088:	sub	a4,a4,a0
    108c:	lw	a5,12(a4)
    1090:	lw	a2,8(a4)
    1094:	add	a3,a3,a0
    1098:	sw	a5,12(a2)
    109c:	sw	a2,8(a5)
    10a0:	lui	a5,0x2
    10a4:	or	a2,a3,1
    10a8:	lw	a5,1596(a5) # 263c <__malloc_trim_threshold>
    10ac:	sw	a2,4(a4)
    10b0:	sw	a4,8(a1)
    10b4:	bltu	a3,a5,f6c <_free_r+0xdc>
    10b8:	lui	a5,0x2
    10bc:	lw	a1,2000(a5) # 27d0 <__malloc_top_pad>
    10c0:	mv	a0,s1
    10c4:	jal	d4c <_malloc_trim_r>
    10c8:	j	f6c <_free_r+0xdc>
    10cc:	add	a5,a5,a3
    10d0:	j	1024 <_free_r+0x194>
    10d4:	li	a2,20
    10d8:	bgeu	a2,a3,10f8 <_free_r+0x268>
    10dc:	li	a2,84
    10e0:	bltu	a2,a3,1148 <_free_r+0x2b8>
    10e4:	srl	a3,a5,0xc
    10e8:	add	a0,a3,111
    10ec:	add	a2,a3,110
    10f0:	sll	a0,a0,0x3
    10f4:	j	fc0 <_free_r+0x130>
    10f8:	add	a0,a3,92
    10fc:	add	a2,a3,91
    1100:	sll	a0,a0,0x3
    1104:	j	fc0 <_free_r+0x130>
    1108:	sw	a4,20(a1)
    110c:	sw	a4,16(a1)
    1110:	or	a3,a5,1
    1114:	sw	a0,12(a4)
    1118:	sw	a0,8(a4)
    111c:	sw	a3,4(a4)
    1120:	add	a4,a4,a5
    1124:	sw	a5,0(a4)
    1128:	j	f6c <_free_r+0xdc>
    112c:	lw	a6,4(a1)
    1130:	sra	a2,a2,0x2
    1134:	li	a5,1
    1138:	sll	a5,a5,a2
    113c:	or	a5,a5,a6
    1140:	sw	a5,4(a1)
    1144:	j	fec <_free_r+0x15c>
    1148:	li	a2,340
    114c:	bltu	a2,a3,1164 <_free_r+0x2d4>
    1150:	srl	a3,a5,0xf
    1154:	add	a0,a3,120
    1158:	add	a2,a3,119
    115c:	sll	a0,a0,0x3
    1160:	j	fc0 <_free_r+0x130>
    1164:	li	a2,1364
    1168:	bltu	a2,a3,1180 <_free_r+0x2f0>
    116c:	srl	a3,a5,0x12
    1170:	add	a0,a3,125
    1174:	add	a2,a3,124
    1178:	sll	a0,a0,0x3
    117c:	j	fc0 <_free_r+0x130>
    1180:	li	a0,1016
    1184:	li	a2,126
    1188:	j	fc0 <_free_r+0x130>
    118c:	or	a3,a5,1
    1190:	sw	a3,4(a4)
    1194:	sw	a5,0(a2)
    1198:	j	f6c <_free_r+0xdc>

Disassembly of section .text._malloc_r:

0000119c <_malloc_r>:
    119c:	add	sp,sp,-48
    11a0:	sw	s3,28(sp)
    11a4:	sw	ra,44(sp)
    11a8:	sw	s0,40(sp)
    11ac:	sw	s1,36(sp)
    11b0:	sw	s2,32(sp)
    11b4:	add	a5,a1,11
    11b8:	li	a4,22
    11bc:	mv	s3,a0
    11c0:	bltu	a4,a5,1244 <_malloc_r+0xa8>
    11c4:	li	a5,16
    11c8:	bltu	a5,a1,13d4 <_malloc_r+0x238>
    11cc:	jal	1970 <__malloc_lock>
    11d0:	li	a5,24
    11d4:	li	a1,2
    11d8:	li	s1,16
    11dc:	lui	s2,0x2
    11e0:	add	s2,s2,536 # 2218 <__malloc_av_>
    11e4:	add	a5,s2,a5
    11e8:	lw	s0,4(a5)
    11ec:	add	a4,a5,-8
    11f0:	beq	s0,a4,154c <_malloc_r+0x3b0>
    11f4:	lw	a5,4(s0)
    11f8:	lw	a3,12(s0)
    11fc:	lw	a2,8(s0)
    1200:	and	a5,a5,-4
    1204:	add	a5,s0,a5
    1208:	lw	a4,4(a5)
    120c:	sw	a3,12(a2)
    1210:	sw	a2,8(a3)
    1214:	or	a4,a4,1
    1218:	mv	a0,s3
    121c:	sw	a4,4(a5)
    1220:	jal	1974 <__malloc_unlock>
    1224:	add	a0,s0,8
    1228:	lw	ra,44(sp)
    122c:	lw	s0,40(sp)
    1230:	lw	s1,36(sp)
    1234:	lw	s2,32(sp)
    1238:	lw	s3,28(sp)
    123c:	add	sp,sp,48
    1240:	ret
    1244:	and	s1,a5,-8
    1248:	bltz	a5,13d4 <_malloc_r+0x238>
    124c:	bltu	s1,a1,13d4 <_malloc_r+0x238>
    1250:	jal	1970 <__malloc_lock>
    1254:	li	a5,503
    1258:	bgeu	a5,s1,1660 <_malloc_r+0x4c4>
    125c:	srl	a5,s1,0x9
    1260:	beqz	a5,13e4 <_malloc_r+0x248>
    1264:	li	a4,4
    1268:	bltu	a4,a5,15bc <_malloc_r+0x420>
    126c:	srl	a5,s1,0x6
    1270:	add	a1,a5,57
    1274:	add	a6,a5,56
    1278:	sll	a2,a1,0x3
    127c:	lui	s2,0x2
    1280:	add	s2,s2,536 # 2218 <__malloc_av_>
    1284:	add	a2,s2,a2
    1288:	lw	s0,4(a2)
    128c:	add	a2,a2,-8
    1290:	beq	a2,s0,12c0 <_malloc_r+0x124>
    1294:	li	a0,15
    1298:	j	12ac <_malloc_r+0x110>
    129c:	lw	a3,12(s0)
    12a0:	bgez	a4,1544 <_malloc_r+0x3a8>
    12a4:	beq	a2,a3,12c0 <_malloc_r+0x124>
    12a8:	mv	s0,a3
    12ac:	lw	a5,4(s0)
    12b0:	and	a5,a5,-4
    12b4:	sub	a4,a5,s1
    12b8:	bge	a0,a4,129c <_malloc_r+0x100>
    12bc:	mv	a1,a6
    12c0:	lw	s0,16(s2)
    12c4:	lui	a6,0x2
    12c8:	add	a6,a6,544 # 2220 <__malloc_av_+0x8>
    12cc:	beq	s0,a6,153c <_malloc_r+0x3a0>
    12d0:	lw	a5,4(s0)
    12d4:	li	a3,15
    12d8:	and	a5,a5,-4
    12dc:	sub	a4,a5,s1
    12e0:	blt	a3,a4,166c <_malloc_r+0x4d0>
    12e4:	sw	a6,20(s2)
    12e8:	sw	a6,16(s2)
    12ec:	bgez	a4,1640 <_malloc_r+0x4a4>
    12f0:	li	a4,511
    12f4:	lw	a0,4(s2)
    12f8:	bltu	a4,a5,155c <_malloc_r+0x3c0>
    12fc:	and	a4,a5,-8
    1300:	add	a4,a4,8
    1304:	add	a4,s2,a4
    1308:	lw	a3,0(a4)
    130c:	srl	a2,a5,0x5
    1310:	li	a5,1
    1314:	sll	a5,a5,a2
    1318:	or	a0,a0,a5
    131c:	add	a5,a4,-8
    1320:	sw	a5,12(s0)
    1324:	sw	a3,8(s0)
    1328:	sw	a0,4(s2)
    132c:	sw	s0,0(a4)
    1330:	sw	s0,12(a3)
    1334:	sra	a5,a1,0x2
    1338:	li	a2,1
    133c:	sll	a2,a2,a5
    1340:	bltu	a0,a2,13f4 <_malloc_r+0x258>
    1344:	and	a5,a2,a0
    1348:	bnez	a5,1370 <_malloc_r+0x1d4>
    134c:	sll	a2,a2,0x1
    1350:	and	a1,a1,-4
    1354:	and	a5,a2,a0
    1358:	add	a1,a1,4
    135c:	bnez	a5,1370 <_malloc_r+0x1d4>
    1360:	sll	a2,a2,0x1
    1364:	and	a5,a2,a0
    1368:	add	a1,a1,4
    136c:	beqz	a5,1360 <_malloc_r+0x1c4>
    1370:	li	a7,15
    1374:	sll	t1,a1,0x3
    1378:	add	t1,s2,t1
    137c:	mv	a0,t1
    1380:	lw	a5,12(a0)
    1384:	mv	t3,a1
    1388:	beq	a0,a5,15e0 <_malloc_r+0x444>
    138c:	lw	a4,4(a5)
    1390:	mv	s0,a5
    1394:	lw	a5,12(a5)
    1398:	and	a4,a4,-4
    139c:	sub	a3,a4,s1
    13a0:	blt	a7,a3,15f8 <_malloc_r+0x45c>
    13a4:	bltz	a3,1388 <_malloc_r+0x1ec>
    13a8:	add	a4,s0,a4
    13ac:	lw	a3,4(a4)
    13b0:	lw	a2,8(s0)
    13b4:	mv	a0,s3
    13b8:	or	a3,a3,1
    13bc:	sw	a3,4(a4)
    13c0:	sw	a5,12(a2)
    13c4:	sw	a2,8(a5)
    13c8:	jal	1974 <__malloc_unlock>
    13cc:	add	a0,s0,8
    13d0:	j	1228 <_malloc_r+0x8c>
    13d4:	li	a5,12
    13d8:	sw	a5,0(s3)
    13dc:	li	a0,0
    13e0:	j	1228 <_malloc_r+0x8c>
    13e4:	li	a2,512
    13e8:	li	a1,64
    13ec:	li	a6,63
    13f0:	j	127c <_malloc_r+0xe0>
    13f4:	lw	s0,8(s2)
    13f8:	sw	s6,16(sp)
    13fc:	lw	a5,4(s0)
    1400:	and	s6,a5,-4
    1404:	bltu	s6,s1,1414 <_malloc_r+0x278>
    1408:	sub	a4,s6,s1
    140c:	li	a5,15
    1410:	blt	a5,a4,14f8 <_malloc_r+0x35c>
    1414:	lui	a5,0x2
    1418:	sw	s9,4(sp)
    141c:	lui	s9,0x2
    1420:	sw	s5,20(sp)
    1424:	lw	a4,1592(s9) # 2638 <__malloc_sbrk_base>
    1428:	lw	s5,2000(a5) # 27d0 <__malloc_top_pad>
    142c:	sw	s4,24(sp)
    1430:	sw	s7,12(sp)
    1434:	li	a5,-1
    1438:	add	s4,s0,s6
    143c:	add	s5,s1,s5
    1440:	beq	a4,a5,181c <_malloc_r+0x680>
    1444:	lui	a5,0x1
    1448:	add	a5,a5,15 # 100f <_free_r+0x17f>
    144c:	add	s5,s5,a5
    1450:	lui	a5,0xfffff
    1454:	and	s5,s5,a5
    1458:	mv	a1,s5
    145c:	mv	a0,s3
    1460:	jal	1dc4 <_sbrk_r>
    1464:	li	a5,-1
    1468:	mv	s7,a0
    146c:	beq	a0,a5,18d0 <_malloc_r+0x734>
    1470:	sw	s8,8(sp)
    1474:	bltu	a0,s4,16bc <_malloc_r+0x520>
    1478:	lui	s8,0x2
    147c:	add	s8,s8,1952 # 27a0 <__malloc_current_mallinfo>
    1480:	lw	a1,0(s8)
    1484:	add	a1,s5,a1
    1488:	sw	a1,0(s8)
    148c:	mv	a4,a1
    1490:	bne	s4,a0,1748 <_malloc_r+0x5ac>
    1494:	sll	a5,a0,0x14
    1498:	bnez	a5,1748 <_malloc_r+0x5ac>
    149c:	lw	s7,8(s2)
    14a0:	add	a5,s6,s5
    14a4:	or	a5,a5,1
    14a8:	sw	a5,4(s7)
    14ac:	lui	a4,0x2
    14b0:	lw	a3,1996(a4) # 27cc <__malloc_max_sbrked_mem>
    14b4:	bgeu	a3,a1,14bc <_malloc_r+0x320>
    14b8:	sw	a1,1996(a4)
    14bc:	lui	a4,0x2
    14c0:	lw	a3,1992(a4) # 27c8 <__malloc_max_total_mem>
    14c4:	bgeu	a3,a1,14cc <_malloc_r+0x330>
    14c8:	sw	a1,1992(a4)
    14cc:	lw	s8,8(sp)
    14d0:	mv	s0,s7
    14d4:	and	a5,a5,-4
    14d8:	sub	a4,a5,s1
    14dc:	bltu	a5,s1,1874 <_malloc_r+0x6d8>
    14e0:	li	a5,15
    14e4:	bge	a5,a4,1874 <_malloc_r+0x6d8>
    14e8:	lw	s4,24(sp)
    14ec:	lw	s5,20(sp)
    14f0:	lw	s7,12(sp)
    14f4:	lw	s9,4(sp)
    14f8:	or	a5,s1,1
    14fc:	sw	a5,4(s0)
    1500:	add	s1,s0,s1
    1504:	sw	s1,8(s2)
    1508:	or	a4,a4,1
    150c:	mv	a0,s3
    1510:	sw	a4,4(s1)
    1514:	jal	1974 <__malloc_unlock>
    1518:	lw	ra,44(sp)
    151c:	add	a0,s0,8
    1520:	lw	s0,40(sp)
    1524:	lw	s6,16(sp)
    1528:	lw	s1,36(sp)
    152c:	lw	s2,32(sp)
    1530:	lw	s3,28(sp)
    1534:	add	sp,sp,48
    1538:	ret
    153c:	lw	a0,4(s2)
    1540:	j	1334 <_malloc_r+0x198>
    1544:	lw	a2,8(s0)
    1548:	j	1204 <_malloc_r+0x68>
    154c:	lw	s0,12(a5) # fffff00c <__sp+0xfffef00c>
    1550:	add	a1,a1,2
    1554:	beq	a5,s0,12c0 <_malloc_r+0x124>
    1558:	j	11f4 <_malloc_r+0x58>
    155c:	srl	a4,a5,0x9
    1560:	li	a3,4
    1564:	bgeu	a3,a4,16a8 <_malloc_r+0x50c>
    1568:	li	a3,20
    156c:	bltu	a3,a4,1898 <_malloc_r+0x6fc>
    1570:	add	a2,a4,92
    1574:	add	a3,a4,91
    1578:	sll	a2,a2,0x3
    157c:	add	a2,s2,a2
    1580:	lw	a4,0(a2)
    1584:	add	a2,a2,-8
    1588:	bne	a2,a4,1598 <_malloc_r+0x3fc>
    158c:	j	1824 <_malloc_r+0x688>
    1590:	lw	a4,8(a4)
    1594:	beq	a2,a4,15a4 <_malloc_r+0x408>
    1598:	lw	a3,4(a4)
    159c:	and	a3,a3,-4
    15a0:	bltu	a5,a3,1590 <_malloc_r+0x3f4>
    15a4:	lw	a2,12(a4)
    15a8:	sw	a2,12(s0)
    15ac:	sw	a4,8(s0)
    15b0:	sw	s0,8(a2)
    15b4:	sw	s0,12(a4)
    15b8:	j	1334 <_malloc_r+0x198>
    15bc:	li	a4,20
    15c0:	bgeu	a4,a5,16d0 <_malloc_r+0x534>
    15c4:	li	a4,84
    15c8:	bltu	a4,a5,18b4 <_malloc_r+0x718>
    15cc:	srl	a5,s1,0xc
    15d0:	add	a1,a5,111
    15d4:	add	a6,a5,110
    15d8:	sll	a2,a1,0x3
    15dc:	j	127c <_malloc_r+0xe0>
    15e0:	add	t3,t3,1
    15e4:	and	a5,t3,3
    15e8:	add	a0,a0,8
    15ec:	beqz	a5,16ec <_malloc_r+0x550>
    15f0:	lw	a5,12(a0)
    15f4:	j	1388 <_malloc_r+0x1ec>
    15f8:	lw	a2,8(s0)
    15fc:	or	a1,s1,1
    1600:	sw	a1,4(s0)
    1604:	sw	a5,12(a2)
    1608:	sw	a2,8(a5)
    160c:	add	s1,s0,s1
    1610:	sw	s1,20(s2)
    1614:	sw	s1,16(s2)
    1618:	or	a5,a3,1
    161c:	sw	a6,12(s1)
    1620:	sw	a6,8(s1)
    1624:	sw	a5,4(s1)
    1628:	add	a4,s0,a4
    162c:	mv	a0,s3
    1630:	sw	a3,0(a4)
    1634:	jal	1974 <__malloc_unlock>
    1638:	add	a0,s0,8
    163c:	j	1228 <_malloc_r+0x8c>
    1640:	add	a5,s0,a5
    1644:	lw	a4,4(a5)
    1648:	mv	a0,s3
    164c:	or	a4,a4,1
    1650:	sw	a4,4(a5)
    1654:	jal	1974 <__malloc_unlock>
    1658:	add	a0,s0,8
    165c:	j	1228 <_malloc_r+0x8c>
    1660:	srl	a1,s1,0x3
    1664:	add	a5,s1,8
    1668:	j	11dc <_malloc_r+0x40>
    166c:	or	a3,s1,1
    1670:	sw	a3,4(s0)
    1674:	add	s1,s0,s1
    1678:	sw	s1,20(s2)
    167c:	sw	s1,16(s2)
    1680:	or	a3,a4,1
    1684:	sw	a6,12(s1)
    1688:	sw	a6,8(s1)
    168c:	sw	a3,4(s1)
    1690:	add	a5,s0,a5
    1694:	mv	a0,s3
    1698:	sw	a4,0(a5)
    169c:	jal	1974 <__malloc_unlock>
    16a0:	add	a0,s0,8
    16a4:	j	1228 <_malloc_r+0x8c>
    16a8:	srl	a4,a5,0x6
    16ac:	add	a2,a4,57
    16b0:	add	a3,a4,56
    16b4:	sll	a2,a2,0x3
    16b8:	j	157c <_malloc_r+0x3e0>
    16bc:	beq	s0,s2,1734 <_malloc_r+0x598>
    16c0:	lw	s0,8(s2)
    16c4:	lw	s8,8(sp)
    16c8:	lw	a5,4(s0)
    16cc:	j	14d4 <_malloc_r+0x338>
    16d0:	add	a1,a5,92
    16d4:	add	a6,a5,91
    16d8:	sll	a2,a1,0x3
    16dc:	j	127c <_malloc_r+0xe0>
    16e0:	lw	a5,8(t1)
    16e4:	add	a1,a1,-1
    16e8:	bne	a5,t1,1968 <_malloc_r+0x7cc>
    16ec:	and	a5,a1,3
    16f0:	add	t1,t1,-8
    16f4:	bnez	a5,16e0 <_malloc_r+0x544>
    16f8:	lw	a4,4(s2)
    16fc:	not	a5,a2
    1700:	and	a5,a5,a4
    1704:	sw	a5,4(s2)
    1708:	sll	a2,a2,0x1
    170c:	bltu	a5,a2,13f4 <_malloc_r+0x258>
    1710:	beqz	a2,13f4 <_malloc_r+0x258>
    1714:	and	a4,a2,a5
    1718:	bnez	a4,172c <_malloc_r+0x590>
    171c:	sll	a2,a2,0x1
    1720:	and	a4,a2,a5
    1724:	add	t3,t3,4
    1728:	beqz	a4,171c <_malloc_r+0x580>
    172c:	mv	a1,t3
    1730:	j	1374 <_malloc_r+0x1d8>
    1734:	lui	s8,0x2
    1738:	add	s8,s8,1952 # 27a0 <__malloc_current_mallinfo>
    173c:	lw	a4,0(s8)
    1740:	add	a4,s5,a4
    1744:	sw	a4,0(s8)
    1748:	lw	a3,1592(s9)
    174c:	li	a5,-1
    1750:	beq	a3,a5,18dc <_malloc_r+0x740>
    1754:	sub	a5,s7,s4
    1758:	add	a5,a5,a4
    175c:	sw	a5,0(s8)
    1760:	and	s9,s7,7
    1764:	beqz	s9,183c <_malloc_r+0x6a0>
    1768:	sub	s7,s7,s9
    176c:	lui	a5,0x1
    1770:	add	a5,a5,8 # 1008 <_free_r+0x178>
    1774:	add	s7,s7,8
    1778:	sub	a1,a5,s9
    177c:	add	s5,s7,s5
    1780:	sub	a1,a1,s5
    1784:	sll	a1,a1,0x14
    1788:	srl	s4,a1,0x14
    178c:	mv	a1,s4
    1790:	mv	a0,s3
    1794:	jal	1dc4 <_sbrk_r>
    1798:	li	a5,-1
    179c:	beq	a0,a5,191c <_malloc_r+0x780>
    17a0:	sub	a0,a0,s7
    17a4:	add	s5,a0,s4
    17a8:	lw	a4,0(s8)
    17ac:	sw	s7,8(s2)
    17b0:	or	a5,s5,1
    17b4:	add	a1,s4,a4
    17b8:	sw	a1,0(s8)
    17bc:	sw	a5,4(s7)
    17c0:	beq	s0,s2,14ac <_malloc_r+0x310>
    17c4:	li	a3,15
    17c8:	bgeu	a3,s6,1868 <_malloc_r+0x6cc>
    17cc:	lw	a4,4(s0)
    17d0:	add	a5,s6,-12
    17d4:	and	a5,a5,-8
    17d8:	and	a4,a4,1
    17dc:	or	a4,a4,a5
    17e0:	sw	a4,4(s0)
    17e4:	li	a2,5
    17e8:	add	a4,s0,a5
    17ec:	sw	a2,4(a4)
    17f0:	sw	a2,8(a4)
    17f4:	bltu	a3,a5,1800 <_malloc_r+0x664>
    17f8:	lw	a5,4(s7)
    17fc:	j	14ac <_malloc_r+0x310>
    1800:	add	a1,s0,8
    1804:	mv	a0,s3
    1808:	jal	e90 <_free_r>
    180c:	lw	s7,8(s2)
    1810:	lw	a1,0(s8)
    1814:	lw	a5,4(s7)
    1818:	j	14ac <_malloc_r+0x310>
    181c:	add	s5,s5,16
    1820:	j	1458 <_malloc_r+0x2bc>
    1824:	sra	a3,a3,0x2
    1828:	li	a5,1
    182c:	sll	a5,a5,a3
    1830:	or	a0,a0,a5
    1834:	sw	a0,4(s2)
    1838:	j	15a8 <_malloc_r+0x40c>
    183c:	add	a1,s7,s5
    1840:	neg	a1,a1
    1844:	sll	a1,a1,0x14
    1848:	srl	s4,a1,0x14
    184c:	mv	a1,s4
    1850:	mv	a0,s3
    1854:	jal	1dc4 <_sbrk_r>
    1858:	li	a5,-1
    185c:	bne	a0,a5,17a0 <_malloc_r+0x604>
    1860:	li	s4,0
    1864:	j	17a8 <_malloc_r+0x60c>
    1868:	lw	s8,8(sp)
    186c:	li	a5,1
    1870:	sw	a5,4(s7)
    1874:	mv	a0,s3
    1878:	jal	1974 <__malloc_unlock>
    187c:	li	a0,0
    1880:	lw	s4,24(sp)
    1884:	lw	s5,20(sp)
    1888:	lw	s6,16(sp)
    188c:	lw	s7,12(sp)
    1890:	lw	s9,4(sp)
    1894:	j	1228 <_malloc_r+0x8c>
    1898:	li	a3,84
    189c:	bltu	a3,a4,18e4 <_malloc_r+0x748>
    18a0:	srl	a4,a5,0xc
    18a4:	add	a2,a4,111
    18a8:	add	a3,a4,110
    18ac:	sll	a2,a2,0x3
    18b0:	j	157c <_malloc_r+0x3e0>
    18b4:	li	a4,340
    18b8:	bltu	a4,a5,1900 <_malloc_r+0x764>
    18bc:	srl	a5,s1,0xf
    18c0:	add	a1,a5,120
    18c4:	add	a6,a5,119
    18c8:	sll	a2,a1,0x3
    18cc:	j	127c <_malloc_r+0xe0>
    18d0:	lw	s0,8(s2)
    18d4:	lw	a5,4(s0)
    18d8:	j	14d4 <_malloc_r+0x338>
    18dc:	sw	s7,1592(s9)
    18e0:	j	1760 <_malloc_r+0x5c4>
    18e4:	li	a3,340
    18e8:	bltu	a3,a4,1930 <_malloc_r+0x794>
    18ec:	srl	a4,a5,0xf
    18f0:	add	a2,a4,120
    18f4:	add	a3,a4,119
    18f8:	sll	a2,a2,0x3
    18fc:	j	157c <_malloc_r+0x3e0>
    1900:	li	a4,1364
    1904:	bltu	a4,a5,194c <_malloc_r+0x7b0>
    1908:	srl	a5,s1,0x12
    190c:	add	a1,a5,125
    1910:	add	a6,a5,124
    1914:	sll	a2,a1,0x3
    1918:	j	127c <_malloc_r+0xe0>
    191c:	add	s9,s9,-8
    1920:	add	s5,s5,s9
    1924:	sub	s5,s5,s7
    1928:	li	s4,0
    192c:	j	17a8 <_malloc_r+0x60c>
    1930:	li	a3,1364
    1934:	bltu	a3,a4,195c <_malloc_r+0x7c0>
    1938:	srl	a4,a5,0x12
    193c:	add	a2,a4,125
    1940:	add	a3,a4,124
    1944:	sll	a2,a2,0x3
    1948:	j	157c <_malloc_r+0x3e0>
    194c:	li	a2,1016
    1950:	li	a1,127
    1954:	li	a6,126
    1958:	j	127c <_malloc_r+0xe0>
    195c:	li	a2,1016
    1960:	li	a3,126
    1964:	j	157c <_malloc_r+0x3e0>
    1968:	lw	a5,4(s2)
    196c:	j	1708 <_malloc_r+0x56c>

Disassembly of section .text.__malloc_lock:

00001970 <__malloc_lock>:
    1970:	ret

Disassembly of section .text.__malloc_unlock:

00001974 <__malloc_unlock>:
    1974:	ret

Disassembly of section .text._fclose_r:

00001978 <_fclose_r>:
    1978:	add	sp,sp,-16
    197c:	sw	ra,12(sp)
    1980:	sw	s2,0(sp)
    1984:	beqz	a1,19b4 <_fclose_r+0x3c>
    1988:	sw	s0,8(sp)
    198c:	sw	s1,4(sp)
    1990:	mv	s0,a1
    1994:	mv	s1,a0
    1998:	beqz	a0,19a4 <_fclose_r+0x2c>
    199c:	lw	a5,52(a0)
    19a0:	beqz	a5,1a78 <_fclose_r+0x100>
    19a4:	lh	a5,12(s0)
    19a8:	bnez	a5,19cc <_fclose_r+0x54>
    19ac:	lw	s0,8(sp)
    19b0:	lw	s1,4(sp)
    19b4:	lw	ra,12(sp)
    19b8:	li	s2,0
    19bc:	mv	a0,s2
    19c0:	lw	s2,0(sp)
    19c4:	add	sp,sp,16
    19c8:	ret
    19cc:	mv	a1,s0
    19d0:	mv	a0,s1
    19d4:	jal	1a90 <__sflush_r>
    19d8:	lw	a5,44(s0)
    19dc:	mv	s2,a0
    19e0:	beqz	a5,19f4 <_fclose_r+0x7c>
    19e4:	lw	a1,28(s0)
    19e8:	mv	a0,s1
    19ec:	jalr	a5
    19f0:	bltz	a0,1a58 <_fclose_r+0xe0>
    19f4:	lhu	a5,12(s0)
    19f8:	and	a5,a5,128
    19fc:	bnez	a5,1a68 <_fclose_r+0xf0>
    1a00:	lw	a1,48(s0)
    1a04:	beqz	a1,1a1c <_fclose_r+0xa4>
    1a08:	add	a5,s0,64
    1a0c:	beq	a1,a5,1a18 <_fclose_r+0xa0>
    1a10:	mv	a0,s1
    1a14:	jal	e90 <_free_r>
    1a18:	sw	zero,48(s0)
    1a1c:	lw	a1,68(s0)
    1a20:	beqz	a1,1a30 <_fclose_r+0xb8>
    1a24:	mv	a0,s1
    1a28:	jal	e90 <_free_r>
    1a2c:	sw	zero,68(s0)
    1a30:	jal	6a0 <__sfp_lock_acquire>
    1a34:	sh	zero,12(s0)
    1a38:	jal	6a4 <__sfp_lock_release>
    1a3c:	lw	ra,12(sp)
    1a40:	lw	s0,8(sp)
    1a44:	lw	s1,4(sp)
    1a48:	mv	a0,s2
    1a4c:	lw	s2,0(sp)
    1a50:	add	sp,sp,16
    1a54:	ret
    1a58:	lhu	a5,12(s0)
    1a5c:	li	s2,-1
    1a60:	and	a5,a5,128
    1a64:	beqz	a5,1a00 <_fclose_r+0x88>
    1a68:	lw	a1,16(s0)
    1a6c:	mv	a0,s1
    1a70:	jal	e90 <_free_r>
    1a74:	j	1a00 <_fclose_r+0x88>
    1a78:	jal	67c <__sinit>
    1a7c:	j	19a4 <_fclose_r+0x2c>

Disassembly of section .text.fclose:

00001a80 <fclose>:
    1a80:	lui	a5,0x2
    1a84:	mv	a1,a0
    1a88:	lw	a0,1584(a5) # 2630 <_impure_ptr>
    1a8c:	j	1978 <_fclose_r>

Disassembly of section .text.__sflush_r:

00001a90 <__sflush_r>:
    1a90:	lh	a4,12(a1)
    1a94:	add	sp,sp,-32
    1a98:	sw	s0,24(sp)
    1a9c:	sw	s3,12(sp)
    1aa0:	sw	ra,28(sp)
    1aa4:	and	a5,a4,8
    1aa8:	mv	s0,a1
    1aac:	mv	s3,a0
    1ab0:	bnez	a5,1bd0 <__sflush_r+0x140>
    1ab4:	lui	a5,0x1
    1ab8:	add	a5,a5,-2048 # 800 <__swrite+0x18>
    1abc:	lw	a3,4(a1)
    1ac0:	or	a5,a4,a5
    1ac4:	sh	a5,12(a1)
    1ac8:	blez	a3,1c4c <__sflush_r+0x1bc>
    1acc:	lw	a6,40(s0)
    1ad0:	beqz	a6,1bb8 <__sflush_r+0x128>
    1ad4:	sw	s1,20(sp)
    1ad8:	sll	a3,a4,0x13
    1adc:	lw	s1,0(s3)
    1ae0:	sw	zero,0(s3)
    1ae4:	lw	a1,28(s0)
    1ae8:	bltz	a3,1c64 <__sflush_r+0x1d4>
    1aec:	li	a2,0
    1af0:	li	a3,1
    1af4:	mv	a0,s3
    1af8:	jalr	a6
    1afc:	li	a5,-1
    1b00:	mv	a2,a0
    1b04:	beq	a0,a5,1cac <__sflush_r+0x21c>
    1b08:	lh	a5,12(s0)
    1b0c:	lw	a6,40(s0)
    1b10:	lw	a1,28(s0)
    1b14:	and	a5,a5,4
    1b18:	beqz	a5,1b34 <__sflush_r+0xa4>
    1b1c:	lw	a4,4(s0)
    1b20:	lw	a5,48(s0)
    1b24:	sub	a2,a2,a4
    1b28:	beqz	a5,1b34 <__sflush_r+0xa4>
    1b2c:	lw	a5,60(s0)
    1b30:	sub	a2,a2,a5
    1b34:	li	a3,0
    1b38:	mv	a0,s3
    1b3c:	jalr	a6
    1b40:	li	a5,-1
    1b44:	bne	a0,a5,1c6c <__sflush_r+0x1dc>
    1b48:	lw	a3,0(s3)
    1b4c:	li	a5,29
    1b50:	lh	a4,12(s0)
    1b54:	bltu	a5,a3,1cc8 <__sflush_r+0x238>
    1b58:	lui	a5,0x20400
    1b5c:	add	a5,a5,1 # 20400001 <__sp+0x203f0001>
    1b60:	srl	a5,a5,a3
    1b64:	and	a5,a5,1
    1b68:	beqz	a5,1cc8 <__sflush_r+0x238>
    1b6c:	lw	a2,16(s0)
    1b70:	lui	a5,0xfffff
    1b74:	add	a5,a5,2047 # fffff7ff <__sp+0xfffef7ff>
    1b78:	and	a5,a4,a5
    1b7c:	sh	a5,12(s0)
    1b80:	sw	zero,4(s0)
    1b84:	sw	a2,0(s0)
    1b88:	sll	a5,a4,0x13
    1b8c:	bgez	a5,1b94 <__sflush_r+0x104>
    1b90:	beqz	a3,1c94 <__sflush_r+0x204>
    1b94:	lw	a1,48(s0)
    1b98:	sw	s1,0(s3)
    1b9c:	beqz	a1,1ca4 <__sflush_r+0x214>
    1ba0:	add	a5,s0,64
    1ba4:	beq	a1,a5,1bb0 <__sflush_r+0x120>
    1ba8:	mv	a0,s3
    1bac:	jal	e90 <_free_r>
    1bb0:	lw	s1,20(sp)
    1bb4:	sw	zero,48(s0)
    1bb8:	li	a0,0
    1bbc:	lw	ra,28(sp)
    1bc0:	lw	s0,24(sp)
    1bc4:	lw	s3,12(sp)
    1bc8:	add	sp,sp,32
    1bcc:	ret
    1bd0:	sw	s2,16(sp)
    1bd4:	lw	s2,16(a1)
    1bd8:	beqz	s2,1c5c <__sflush_r+0x1cc>
    1bdc:	sw	s1,20(sp)
    1be0:	lw	s1,0(a1)
    1be4:	and	a4,a4,3
    1be8:	sw	s2,0(a1)
    1bec:	sub	s1,s1,s2
    1bf0:	li	a5,0
    1bf4:	bnez	a4,1bfc <__sflush_r+0x16c>
    1bf8:	lw	a5,20(a1)
    1bfc:	sw	a5,8(s0)
    1c00:	bgtz	s1,1c10 <__sflush_r+0x180>
    1c04:	j	1c58 <__sflush_r+0x1c8>
    1c08:	add	s2,s2,a0
    1c0c:	blez	s1,1c58 <__sflush_r+0x1c8>
    1c10:	lw	a5,36(s0)
    1c14:	lw	a1,28(s0)
    1c18:	mv	a3,s1
    1c1c:	mv	a2,s2
    1c20:	mv	a0,s3
    1c24:	jalr	a5
    1c28:	sub	s1,s1,a0
    1c2c:	bgtz	a0,1c08 <__sflush_r+0x178>
    1c30:	lh	a4,12(s0)
    1c34:	lw	s2,16(sp)
    1c38:	or	a4,a4,64
    1c3c:	lw	s1,20(sp)
    1c40:	sh	a4,12(s0)
    1c44:	li	a0,-1
    1c48:	j	1bbc <__sflush_r+0x12c>
    1c4c:	lw	a3,60(a1)
    1c50:	bgtz	a3,1acc <__sflush_r+0x3c>
    1c54:	j	1bb8 <__sflush_r+0x128>
    1c58:	lw	s1,20(sp)
    1c5c:	lw	s2,16(sp)
    1c60:	j	1bb8 <__sflush_r+0x128>
    1c64:	lw	a2,80(s0)
    1c68:	j	1b14 <__sflush_r+0x84>
    1c6c:	lh	a4,12(s0)
    1c70:	lw	a3,16(s0)
    1c74:	lui	a5,0xfffff
    1c78:	add	a5,a5,2047 # fffff7ff <__sp+0xfffef7ff>
    1c7c:	and	a5,a4,a5
    1c80:	sh	a5,12(s0)
    1c84:	sw	zero,4(s0)
    1c88:	sw	a3,0(s0)
    1c8c:	sll	a5,a4,0x13
    1c90:	bgez	a5,1b94 <__sflush_r+0x104>
    1c94:	lw	a1,48(s0)
    1c98:	sw	a0,80(s0)
    1c9c:	sw	s1,0(s3)
    1ca0:	bnez	a1,1ba0 <__sflush_r+0x110>
    1ca4:	lw	s1,20(sp)
    1ca8:	j	1bb8 <__sflush_r+0x128>
    1cac:	lw	a5,0(s3)
    1cb0:	beqz	a5,1b08 <__sflush_r+0x78>
    1cb4:	li	a4,29
    1cb8:	beq	a5,a4,1cd0 <__sflush_r+0x240>
    1cbc:	li	a4,22
    1cc0:	beq	a5,a4,1cd0 <__sflush_r+0x240>
    1cc4:	lh	a4,12(s0)
    1cc8:	or	a4,a4,64
    1ccc:	j	1c3c <__sflush_r+0x1ac>
    1cd0:	sw	s1,0(s3)
    1cd4:	lw	s1,20(sp)
    1cd8:	j	1bb8 <__sflush_r+0x128>

Disassembly of section .text._fflush_r:

00001cdc <_fflush_r>:
    1cdc:	add	sp,sp,-32
    1ce0:	sw	s0,24(sp)
    1ce4:	sw	ra,28(sp)
    1ce8:	mv	s0,a0
    1cec:	beqz	a0,1cf8 <_fflush_r+0x1c>
    1cf0:	lw	a5,52(a0)
    1cf4:	beqz	a5,1d28 <_fflush_r+0x4c>
    1cf8:	lh	a5,12(a1)
    1cfc:	bnez	a5,1d14 <_fflush_r+0x38>
    1d00:	lw	ra,28(sp)
    1d04:	lw	s0,24(sp)
    1d08:	li	a0,0
    1d0c:	add	sp,sp,32
    1d10:	ret
    1d14:	mv	a0,s0
    1d18:	lw	s0,24(sp)
    1d1c:	lw	ra,28(sp)
    1d20:	add	sp,sp,32
    1d24:	j	1a90 <__sflush_r>
    1d28:	sw	a1,12(sp)
    1d2c:	jal	67c <__sinit>
    1d30:	lw	a1,12(sp)
    1d34:	j	1cf8 <_fflush_r+0x1c>

Disassembly of section .text.fflush:

00001d38 <fflush>:
    1d38:	beqz	a0,1d9c <fflush+0x64>
    1d3c:	lui	a5,0x2
    1d40:	mv	a1,a0
    1d44:	lw	a0,1584(a5) # 2630 <_impure_ptr>
    1d48:	beqz	a0,1d54 <fflush+0x1c>
    1d4c:	lw	a5,52(a0)
    1d50:	beqz	a5,1d68 <fflush+0x30>
    1d54:	lh	a5,12(a1)
    1d58:	bnez	a5,1d64 <fflush+0x2c>
    1d5c:	li	a0,0
    1d60:	ret
    1d64:	j	1a90 <__sflush_r>
    1d68:	add	sp,sp,-32
    1d6c:	sw	a1,12(sp)
    1d70:	sw	a0,8(sp)
    1d74:	sw	ra,28(sp)
    1d78:	jal	67c <__sinit>
    1d7c:	lw	a1,12(sp)
    1d80:	lw	a0,8(sp)
    1d84:	lh	a5,12(a1)
    1d88:	bnez	a5,1db8 <fflush+0x80>
    1d8c:	lw	ra,28(sp)
    1d90:	li	a0,0
    1d94:	add	sp,sp,32
    1d98:	ret
    1d9c:	lui	a2,0x2
    1da0:	lui	a1,0x2
    1da4:	lui	a0,0x2
    1da8:	add	a2,a2,232 # 20e8 <__sglue>
    1dac:	add	a1,a1,-804 # 1cdc <_fflush_r>
    1db0:	add	a0,a0,248 # 20f8 <_impure_data>
    1db4:	j	6d0 <_fwalk_sglue>
    1db8:	lw	ra,28(sp)
    1dbc:	add	sp,sp,32
    1dc0:	j	1a90 <__sflush_r>

Disassembly of section .text._sbrk_r:

00001dc4 <_sbrk_r>:
    1dc4:	add	sp,sp,-16
    1dc8:	sw	s0,8(sp)
    1dcc:	sw	s1,4(sp)
    1dd0:	mv	s0,a0
    1dd4:	lui	s1,0x2
    1dd8:	mv	a0,a1
    1ddc:	sw	ra,12(sp)
    1de0:	sw	zero,1944(s1) # 2798 <errno>
    1de4:	jal	2014 <_sbrk>
    1de8:	li	a5,-1
    1dec:	beq	a0,a5,1e04 <_sbrk_r+0x40>
    1df0:	lw	ra,12(sp)
    1df4:	lw	s0,8(sp)
    1df8:	lw	s1,4(sp)
    1dfc:	add	sp,sp,16
    1e00:	ret
    1e04:	lw	a5,1944(s1)
    1e08:	beqz	a5,1df0 <_sbrk_r+0x2c>
    1e0c:	lw	ra,12(sp)
    1e10:	sw	a5,0(s0)
    1e14:	lw	s0,8(sp)
    1e18:	lw	s1,4(sp)
    1e1c:	add	sp,sp,16
    1e20:	ret

Disassembly of section .text.__libc_fini_array:

00001e24 <__libc_fini_array>:
    1e24:	add	sp,sp,-16
    1e28:	sw	s0,8(sp)
    1e2c:	li	a5,0
    1e30:	li	s0,0
    1e34:	sub	s0,s0,a5
    1e38:	sw	s1,4(sp)
    1e3c:	sw	ra,12(sp)
    1e40:	sra	s1,s0,0x2
    1e44:	beqz	s1,1e64 <__libc_fini_array+0x40>
    1e48:	add	s0,s0,-4
    1e4c:	add	s0,s0,a5
    1e50:	lw	a5,0(s0)
    1e54:	add	s1,s1,-1
    1e58:	add	s0,s0,-4
    1e5c:	jalr	a5
    1e60:	bnez	s1,1e50 <__libc_fini_array+0x2c>
    1e64:	lw	ra,12(sp)
    1e68:	lw	s0,8(sp)
    1e6c:	lw	s1,4(sp)
    1e70:	add	sp,sp,16
    1e74:	ret

Disassembly of section .text.__register_exitproc:

00001e78 <__register_exitproc>:
    1e78:	lui	a4,0x2
    1e7c:	lw	a5,1948(a4) # 279c <__atexit>
    1e80:	beqz	a5,1ed8 <__register_exitproc+0x60>
    1e84:	lw	a4,4(a5)
    1e88:	li	a6,31
    1e8c:	blt	a6,a4,1f10 <__register_exitproc+0x98>
    1e90:	sll	a6,a4,0x2
    1e94:	beqz	a0,1ec0 <__register_exitproc+0x48>
    1e98:	add	t1,a5,a6
    1e9c:	sw	a2,136(t1)
    1ea0:	lw	a7,392(a5)
    1ea4:	li	a2,1
    1ea8:	sll	a2,a2,a4
    1eac:	or	a7,a7,a2
    1eb0:	sw	a7,392(a5)
    1eb4:	sw	a3,264(t1)
    1eb8:	li	a3,2
    1ebc:	beq	a0,a3,1eec <__register_exitproc+0x74>
    1ec0:	add	a4,a4,1
    1ec4:	sw	a4,4(a5)
    1ec8:	add	a5,a5,a6
    1ecc:	sw	a1,8(a5)
    1ed0:	li	a0,0
    1ed4:	ret
    1ed8:	lui	a5,0x2
    1edc:	add	a6,a5,2004 # 27d4 <__atexit0>
    1ee0:	sw	a6,1948(a4)
    1ee4:	add	a5,a5,2004
    1ee8:	j	1e84 <__register_exitproc+0xc>
    1eec:	lw	a3,396(a5)
    1ef0:	add	a4,a4,1
    1ef4:	sw	a4,4(a5)
    1ef8:	or	a3,a3,a2
    1efc:	sw	a3,396(a5)
    1f00:	add	a5,a5,a6
    1f04:	sw	a1,8(a5)
    1f08:	li	a0,0
    1f0c:	ret
    1f10:	li	a0,-1
    1f14:	ret

Disassembly of section .text._close:

00001f18 <_close>:
    1f18:	add	sp,sp,-16
    1f1c:	sw	ra,12(sp)
    1f20:	sw	s0,8(sp)
    1f24:	li	a7,57
    1f28:	ecall
    1f2c:	mv	s0,a0
    1f30:	bltz	a0,1f48 <_close+0x30>
    1f34:	lw	ra,12(sp)
    1f38:	mv	a0,s0
    1f3c:	lw	s0,8(sp)
    1f40:	add	sp,sp,16
    1f44:	ret
    1f48:	neg	s0,s0
    1f4c:	jal	20d4 <__errno>
    1f50:	sw	s0,0(a0)
    1f54:	li	s0,-1
    1f58:	j	1f34 <_close+0x1c>

Disassembly of section .text._exit:

00001f5c <_exit>:
    1f5c:	li	a7,93
    1f60:	ecall
    1f64:	bltz	a0,1f6c <_exit+0x10>
    1f68:	j	1f68 <_exit+0xc>
    1f6c:	add	sp,sp,-16
    1f70:	sw	s0,8(sp)
    1f74:	mv	s0,a0
    1f78:	sw	ra,12(sp)
    1f7c:	neg	s0,s0
    1f80:	jal	20d4 <__errno>
    1f84:	sw	s0,0(a0)
    1f88:	j	1f88 <_exit+0x2c>

Disassembly of section .text._lseek:

00001f8c <_lseek>:
    1f8c:	add	sp,sp,-16
    1f90:	sw	ra,12(sp)
    1f94:	sw	s0,8(sp)
    1f98:	li	a7,62
    1f9c:	ecall
    1fa0:	mv	s0,a0
    1fa4:	bltz	a0,1fbc <_lseek+0x30>
    1fa8:	lw	ra,12(sp)
    1fac:	mv	a0,s0
    1fb0:	lw	s0,8(sp)
    1fb4:	add	sp,sp,16
    1fb8:	ret
    1fbc:	neg	s0,s0
    1fc0:	jal	20d4 <__errno>
    1fc4:	sw	s0,0(a0)
    1fc8:	li	s0,-1
    1fcc:	j	1fa8 <_lseek+0x1c>

Disassembly of section .text._read:

00001fd0 <_read>:
    1fd0:	add	sp,sp,-16
    1fd4:	sw	ra,12(sp)
    1fd8:	sw	s0,8(sp)
    1fdc:	li	a7,63
    1fe0:	ecall
    1fe4:	mv	s0,a0
    1fe8:	bltz	a0,2000 <_read+0x30>
    1fec:	lw	ra,12(sp)
    1ff0:	mv	a0,s0
    1ff4:	lw	s0,8(sp)
    1ff8:	add	sp,sp,16
    1ffc:	ret
    2000:	neg	s0,s0
    2004:	jal	20d4 <__errno>
    2008:	sw	s0,0(a0)
    200c:	li	s0,-1
    2010:	j	1fec <_read+0x1c>

Disassembly of section .text._sbrk:

00002014 <_sbrk>:
    2014:	lui	a3,0x3
    2018:	lw	a4,-1692(a3) # 2964 <heap_end.0>
    201c:	add	sp,sp,-16
    2020:	sw	ra,12(sp)
    2024:	mv	a5,a0
    2028:	bnez	a4,2048 <_sbrk+0x34>
    202c:	li	a7,214
    2030:	li	a0,0
    2034:	ecall
    2038:	li	a2,-1
    203c:	mv	a4,a0
    2040:	beq	a0,a2,2074 <_sbrk+0x60>
    2044:	sw	a0,-1692(a3)
    2048:	li	a7,214
    204c:	add	a0,a5,a4
    2050:	ecall
    2054:	lw	a4,-1692(a3)
    2058:	add	a5,a5,a4
    205c:	bne	a0,a5,2074 <_sbrk+0x60>
    2060:	lw	ra,12(sp)
    2064:	sw	a0,-1692(a3)
    2068:	mv	a0,a4
    206c:	add	sp,sp,16
    2070:	ret
    2074:	jal	20d4 <__errno>
    2078:	lw	ra,12(sp)
    207c:	li	a5,12
    2080:	sw	a5,0(a0)
    2084:	li	a0,-1
    2088:	add	sp,sp,16
    208c:	ret

Disassembly of section .text._write:

00002090 <_write>:
    2090:	add	sp,sp,-16
    2094:	sw	ra,12(sp)
    2098:	sw	s0,8(sp)
    209c:	li	a7,64
    20a0:	ecall
    20a4:	mv	s0,a0
    20a8:	bltz	a0,20c0 <_write+0x30>
    20ac:	lw	ra,12(sp)
    20b0:	mv	a0,s0
    20b4:	lw	s0,8(sp)
    20b8:	add	sp,sp,16
    20bc:	ret
    20c0:	neg	s0,s0
    20c4:	jal	20d4 <__errno>
    20c8:	sw	s0,0(a0)
    20cc:	li	s0,-1
    20d0:	j	20ac <_write+0x1c>

Disassembly of section .text.__errno:

000020d4 <__errno>:
    20d4:	lui	a5,0x2
    20d8:	lw	a0,1584(a5) # 2630 <_impure_ptr>
    20dc:	ret
